(dp1
S'platform_id'
p2
(dp3
S'length'
p4
I512
sS'unique'
p5
I00
sS'sortable'
p6
I2
sS'sql'
p7
S'INTEGER REFERENCES platform (id) ON DELETE CASCADE'
p8
sS'notnull'
p9
I00
sS'type'
p10
S'reference platform'
p11
ssS'id'
p12
(dp13
g4
I512
sg5
I00
sg6
I1
sg7
S'SERIAL PRIMARY KEY'
p14
sg9
I00
sg10
g12
ssS'value'
p15
(dp16
g4
I32768
sg5
I00
sg6
I4
sg7
S'TEXT'
p17
sg9
I00
sg10
S'text'
p18
ssS'name'
p19
(dp20
g4
I512
sg5
I00
sg6
I3
sg7
S'VARCHAR(512)'
p21
sg9
I00
sg10
S'string'
p22
ss.