(dp1
S'platform_id'
p2
(dp3
S'length'
p4
S'text'
p5
sS'unique'
p6
I00
sS'sortable'
p7
I2
sS'sql'
p8
S'INTEGER REFERENCES platform (id) ON DELETE CASCADE'
p9
sS'notnull'
p10
I00
sS'type'
p11
S'reference platform'
p12
ssS'attribute_value'
p13
(dp14
g4
g5
sg6
I00
sg7
I4
sg8
S'TEXT'
p15
sg10
I00
sg11
g5
ssS'attribute_name'
p16
(dp17
g4
I32768
sg6
I00
sg7
I3
sg8
S'TEXT'
p18
sg10
I00
sg11
g5
ssS'id'
p19
(dp20
g4
I512
sg6
I00
sg7
I1
sg8
S'SERIAL PRIMARY KEY'
p21
sg10
I00
sg11
g19
ss.