(dp1
S'attribute_value'
p2
(dp3
S'length'
p4
S'text'
p5
sS'unique'
p6
I00
sS'sortable'
p7
I4
sS'sql'
p8
S'TEXT'
p9
sS'notnull'
p10
I00
sS'type'
p11
g5
ssS'attribute_name'
p12
(dp13
g4
I256
sg6
I00
sg7
I3
sg8
S'VARCHAR(256)'
p14
sg10
I00
sg11
S'string'
p15
ssS'id'
p16
(dp17
g4
I512
sg6
I00
sg7
I1
sg8
S'SERIAL PRIMARY KEY'
p18
sg10
I00
sg11
g16
ssS'sample_id'
p19
(dp20
g4
g5
sg6
I00
sg7
I2
sg8
S'INTEGER REFERENCES sample (id) ON DELETE CASCADE'
p21
sg10
I00
sg11
S'reference sample'
p22
ss.