(dp1
S'sample_view_id'
p2
(dp3
S'length'
p4
I512
sS'unique'
p5
I00
sS'sortable'
p6
I2
sS'sql'
p7
S'INTEGER'
p8
sS'notnull'
p9
I00
sS'type'
p10
S'integer'
p11
ssS'id'
p12
(dp13
g4
I512
sg5
I00
sg6
I1
sg7
S'SERIAL PRIMARY KEY'
p14
sg9
I00
sg10
g12
ssS'search_id'
p15
(dp16
g4
I512
sg5
I00
sg6
I3
sg7
S'INTEGER REFERENCES search (id) ON DELETE CASCADE'
p17
sg9
I00
sg10
S'reference search'
p18
ss.