(dp1
S'output'
p2
S'<class \'psycopg2.ProgrammingError\'> syntax error at or near "INTEGER"\nLINE 3:     seri  es_id INTEGER REFERENCES series (id) ON DELETE CAS...\n                        ^\n'
p3
sS'layer'
p4
S'/Users/dex/Copy/web2py/applications/star/models/my_db.py'
p5
sS'code'
p6
S'__author__ = \'dex\'\nresponse.generic_patterns = [\'.html\']\n\nSeries = db.define_table(\'series\',\n                         Field(\'gse_name\'),\n                         format=\'%(gse_name)s\',\n                         migrate=\'series.table\'\n)\n\nSeries_Attribute = db.define_table(\'series_attribute\',\n                         Field(\'series_id\', \'reference series\'),\n                         Field(\'name\'),\n                         Field(\'value\', \'text\'),\n                         format=\'%(name)s_%(value)s\',\n                         migrate=\'series_attribute.table\'\n)\n\n\nPlatform = db.define_table(\'platform\',\n                         Field(\'gpl_name\'),\n                         format=\'%(gpl_name)s\',\n                         migrate=\'platform.table\'\n)\n\nPlatform_Attribute = db.define_table(\'platform_attribute\',\n                         Field(\'platform_id\', \'reference platform\'),\n                         Field(\'name\'),\n                         Field(\'value\', \'text\'),\n                         format=\'%(name)s_%(value)s\',\n                         migrate=\'platform_attribute.table\'\n)\n\nSample = db.define_table(\'sample\',\n                         Field(\'series_id\', \'reference series\'),\n                         Field(\'platform_id\', \'reference platform\'),\n                         Field(\'gsm_name\'),\n                         format=\'%(gsm_name)s\',\n                         migrate=\'sample.table\'\n)\n\nSample_Attribute = db.define_table(\'sample_attribute\',\n                         Field(\'sample_id\', \'reference sample\'),\n                         Field(\'name\'),\n                         Field(\'value\', \'text\'),\n                         format=\'%(name)s_%(value)s\',\n                         migrate=\'sample_attribute.table\'\n)\n\n\nAnnotation = db.define_table(\'annotation\',\n                             Field(\'name\', unique=True),\n                             Field(\'description\'),\n                             auth.signature,\n                             format=\'%(name)s\',\n                             migrate=\'annotation.table\'\n)\n\nSeries_Annotation = db.define_table(\'series_annotation\',\n                                   Field(\'seri  es_id\', \'reference series\'),\n                                   Field(\'platform_id\', \'reference platform\'),\n                                   Field(\'annotation_id\', \'reference annotation\'),\n                                   Field(\'col\'),\n                                   Field(\'regex\'),\n                                   auth.signature,\n                                   format=\'%(col)s_%(regex)s\',\n                                   migrate="series_annotation.table"\n)\n\nSample_Annotation = db.define_table(\'sample_annotation\',\n                                    Field(\'series_annotation_id\', \'reference series_annotation\'),\n                                    Field(\'sample_id\', \'reference sample\'),\n                                    Field(\'feature\'),\n                                    auth.signature,\n                                    format=\'%(feature)s\',\n                                    migrate="sample_annotation.table"\n)\n\nSearch = db.define_table(\'search\',\n                         Field(\'query\'),\n                         format=\'%(query)s\',\n                         migrate=\'search.table\'\n)\n'
p7
sS'snapshot'
p8
(dp9
S'exception'
p10
(dp11
S'__module__'
p12
S"'psycopg2'"
p13
sS'__getslice__'
p14
S"<method-wrapper '__getslice__' of ProgrammingError object>"
p15
sS'__str__'
p16
S"<method-wrapper '__str__' of ProgrammingError object>"
p17
sS'__reduce__'
p18
S'<built-in method __reduce__ of ProgrammingError object>'
p19
sS'__dict__'
p20
S'{}'
p21
sS'__sizeof__'
p22
S'<built-in method __sizeof__ of ProgrammingError object>'
p23
sS'__weakref__'
p24
S'None'
p25
sS'__init__'
p26
S"<method-wrapper '__init__' of ProgrammingError object>"
p27
sS'__setattr__'
p28
S"<method-wrapper '__setattr__' of ProgrammingError object>"
p29
sS'__reduce_ex__'
p30
S'<built-in method __reduce_ex__ of ProgrammingError object>'
p31
sS'__new__'
p32
S'<built-in method __new__ of type object>'
p33
sS'diag'
p34
S'<psycopg2._psycopg.Diagnostics object>'
p35
sS'__format__'
p36
S'<built-in method __format__ of ProgrammingError object>'
p37
sS'__class__'
p38
S"<class 'psycopg2.ProgrammingError'>"
p39
sS'pgerror'
p40
S'\'ERROR:  syntax error at or near "INTEGER"\\nLINE 3... (id) ON DELETE CAS...\\n                        ^\\n\''
p41
sS'__doc__'
p42
S"'Error related to database programming (SQL error, table not found etc).'"
p43
sS'__getitem__'
p44
S"<method-wrapper '__getitem__' of ProgrammingError object>"
p45
sS'__setstate__'
p46
S'<built-in method __setstate__ of ProgrammingError object>'
p47
sS'__getattribute__'
p48
S"<method-wrapper '__getattribute__' of ProgrammingError object>"
p49
sS'args'
p50
S'(\'syntax error at or near "INTEGER"\\nLINE 3:     se... (id) ON DELETE CAS...\\n                        ^\\n\',)'
p51
sS'__subclasshook__'
p52
S'<built-in method __subclasshook__ of type object>'
p53
sS'pgcode'
p54
S"'42601'"
p55
sS'__unicode__'
p56
S'<built-in method __unicode__ of ProgrammingError object>'
p57
sS'cursor'
p58
S'<cursor object at 0x111a44050; closed: 0>'
p59
sS'__delattr__'
p60
S"<method-wrapper '__delattr__' of ProgrammingError object>"
p61
sS'__repr__'
p62
S"<method-wrapper '__repr__' of ProgrammingError object>"
p63
sS'__hash__'
p64
S"<method-wrapper '__hash__' of ProgrammingError object>"
p65
ssS'evalue'
p66
S'syntax error at or near "INTEGER"\nLINE 3:     seri  es_id INTEGER REFERENCES series (id) ON DELETE CAS...\n                        ^\n'
p67
sS'request'
p68
cgluon.html
XML_unpickle
p69
(S's\xdfS\x00\x00<div><table><tr><td style="font-weight:bold;vertical-align:top;">ajax</td><td style="vertical-align:top;">:</td><td><div>False</div></td></tr><tr><td style="font-weight:bold;vertical-align:top;">application</td><td style="vertical-align:top;">:</td><td><div>star</div></td></tr><tr><td style="font-weight:bold;vertical-align:top;">args</td><td style="vertical-align:top;">:</td><td><div><table></table></div></td></tr><tr><td style="font-weight:bold;vertical-align:top;">cid</td><td style="vertical-align:top;">:</td><td><div>None</div></td></tr><tr><td style="font-weight:bold;vertical-align:top;">client</td><td style="vertical-align:top;">:</td><td><div>127.0.0.1</div></td></tr><tr><td style="font-weight:bold;vertical-align:top;">controller</td><td style="vertical-align:top;">:</td><td><div>default</div></td></tr><tr><td style="font-weight:bold;vertical-align:top;">cookies</td><td style="vertical-align:top;">:</td><td><div><table><tr><td style="font-weight:bold;vertical-align:top;">session_id_admin</td><td style="vertical-align:top;">:</td><td><div>127.0.0.1-220c08fb-ed6b-443a-b0b0-527482ae7d45<table><tr><td style="font-weight:bold;vertical-align:top;">comment</td><td style="vertical-align:top;">:</td><td><div></div></td></tr><tr><td style="font-weight:bold;vertical-align:top;">domain</td><td style="vertical-align:top;">:</td><td><div></div></td></tr><tr><td style="font-weight:bold;vertical-align:top;">expires</td><td style="vertical-align:top;">:</td><td><div></div></td></tr><tr><td style="font-weight:bold;vertical-align:top;">httponly</td><td style="vertical-align:top;">:</td><td><div></div></td></tr><tr><td style="font-weight:bold;vertical-align:top;">max-age</td><td style="vertical-align:top;">:</td><td><div></div></td></tr><tr><td style="font-weight:bold;vertical-align:top;">path</td><td style="vertical-align:top;">:</td><td><div></div></td></tr><tr><td style="font-weight:bold;vertical-align:top;">secure</td><td style="vertical-align:top;">:</td><td><div></div></td></tr><tr><td style="font-weight:bold;vertical-align:top;">version</td><td style="vertical-align:top;">:</td><td><div></div></td></tr></table></div></td></tr><tr><td style="font-weight:bold;vertical-align:top;">session_id_init</td><td style="vertical-align:top;">:</td><td><div>127.0.0.1-89dadc0a-054b-4f27-a6dc-cae4f18e6c96<table><tr><td style="font-weight:bold;vertical-align:top;">comment</td><td style="vertical-align:top;">:</td><td><div></div></td></tr><tr><td style="font-weight:bold;vertical-align:top;">domain</td><td style="vertical-align:top;">:</td><td><div></div></td></tr><tr><td style="font-weight:bold;vertical-align:top;">expires</td><td style="vertical-align:top;">:</td><td><div></div></td></tr><tr><td style="font-weight:bold;vertical-align:top;">httponly</td><td style="vertical-align:top;">:</td><td><div></div></td></tr><tr><td style="font-weight:bold;vertical-align:top;">max-age</td><td style="vertical-align:top;">:</td><td><div></div></td></tr><tr><td style="font-weight:bold;vertical-align:top;">path</td><td style="vertical-align:top;">:</td><td><div></div></td></tr><tr><td style="font-weight:bold;vertical-align:top;">secure</td><td style="vertical-align:top;">:</td><td><div></div></td></tr><tr><td style="font-weight:bold;vertical-align:top;">version</td><td style="vertical-align:top;">:</td><td><div></div></td></tr></table></div></td></tr></table></div></td></tr><tr><td style="font-weight:bold;vertical-align:top;">env</td><td style="vertical-align:top;">:</td><td><div><table><tr><td style="font-weight:bold;vertical-align:top;">HTTP_ACCEPT</td><td style="vertical-align:top;">:</td><td><div>text/html,application/xhtml+xml,application/xml;q=0.9,*/*;q=0.8</div></td></tr><tr><td style="font-weight:bold;vertical-align:top;">HTTP_ACCEPT_ENCODING</td><td style="vertical-align:top;">:</td><td><div>gzip, deflate</div></td></tr><tr><td style="font-weight:bold;vertical-align:top;">HTTP_ACCEPT_LANGUAGE</td><td style="vertical-align:top;">:</td><td><div>en-us</div></td></tr><tr><td style="font-weight:bold;vertical-align:top;">HTTP_CONNECTION</td><td style="vertical-align:top;">:</td><td><div>keep-alive</div></td></tr><tr><td style="font-weight:bold;vertical-align:top;">HTTP_COOKIE</td><td style="vertical-align:top;">:</td><td><div>__utma=96992031.610755589.1403713895.1405113638.1407260865.14; __utmb=96992031.3.10.1407260865; __utmc=96992031; __utmz=96992031.1403713895.1.1.utmcsr=(direct)|utmccn=(direct)|utmcmd=(none); session_id_admin=127.0.0.1-220c08fb-ed6b-443a-b0b0-527482ae7d45; session_id_init=127.0.0.1-89dadc0a-054b-4f27-a6dc-cae4f18e6c96</div></td></tr><tr><td style="font-weight:bold;vertical-align:top;">HTTP_HOST</td><td style="vertical-align:top;">:</td><td><div>127.0.0.1:8000</div></td></tr><tr><td style="font-weight:bold;vertical-align:top;">HTTP_USER_AGENT</td><td style="vertical-align:top;">:</td><td><div>Mozilla/5.0 (Macintosh; Intel Mac OS X 10_9_4) AppleWebKit/537.77.4 (KHTML, like Gecko) Version/7.0.5 Safari/537.77.4</div></td></tr><tr><td style="font-weight:bold;vertical-align:top;">PATH_INFO</td><td style="vertical-align:top;">:</td><td><div>/star</div></td></tr><tr><td style="font-weight:bold;vertical-align:top;">QUERY_STRING</td><td style="vertical-align:top;">:</td><td><div></div></td></tr><tr><td style="font-weight:bold;vertical-align:top;">REMOTE_ADDR</td><td style="vertical-align:top;">:</td><td><div>127.0.0.1</div></td></tr><tr><td style="font-weight:bold;vertical-align:top;">REMOTE_PORT</td><td style="vertical-align:top;">:</td><td><div>61797</div></td></tr><tr><td style="font-weight:bold;vertical-align:top;">REQUEST_METHOD</td><td style="vertical-align:top;">:</td><td><div>GET</div></td></tr><tr><td style="font-weight:bold;vertical-align:top;">SCRIPT_NAME</td><td style="vertical-align:top;">:</td><td><div></div></td></tr><tr><td style="font-weight:bold;vertical-align:top;">SERVER_NAME</td><td style="vertical-align:top;">:</td><td><div>dn2m1i7rs.sunet</div></td></tr><tr><td style="font-weight:bold;vertical-align:top;">SERVER_PORT</td><td style="vertical-align:top;">:</td><td><div>8000</div></td></tr><tr><td style="font-weight:bold;vertical-align:top;">SERVER_PROTOCOL</td><td style="vertical-align:top;">:</td><td><div>HTTP/1.1</div></td></tr><tr><td style="font-weight:bold;vertical-align:top;">SERVER_SOFTWARE</td><td style="vertical-align:top;">:</td><td><div>Rocket 1.2.6</div></td></tr><tr><td style="font-weight:bold;vertical-align:top;">app_folders</td><td style="vertical-align:top;">:</td><td><div>set([&#x27;/Users/dex/Copy/web2py/applications/init/&#x27;, &#x27;/Users/dex/Copy/web2py/applications/star/&#x27;])</div></td></tr><tr><td style="font-weight:bold;vertical-align:top;">applications_parent</td><td style="vertical-align:top;">:</td><td><div>/Users/dex/Copy/web2py</div></td></tr><tr><td style="font-weight:bold;vertical-align:top;">cmd_args</td><td style="vertical-align:top;">:</td><td><div><table></table></div></td></tr><tr><td style="font-weight:bold;vertical-align:top;">cmd_options</td><td style="vertical-align:top;">:</td><td><div>&lt;Values at 0x104e073f8: {&#x27;verbose&#x27;: False, &#x27;ip&#x27;: &#x27;127.0.0.1&#x27;, &#x27;debuglevel&#x27;: 30, &#x27;with_scheduler&#x27;: False, &#x27;ips&#x27;: [&#x27;172.25.31.124&#x27;], &#x27;shutdown_timeout&#x27;: 5, &#x27;taskbar&#x27;: False, &#x27;with_coverage&#x27;: False, &#x27;port&#x27;: 8000, &#x27;maxthreads&#x27;: None, &#x27;softcron&#x27;: False, &#x27;server_name&#x27;: &#x27;dn2m1i7rs.sunet&#x27;, &#x27;bpython&#x27;: False, &#x27;nogui&#x27;: False, &#x27;pid_filename&#x27;: &#x27;httpserver.pid&#x27;, &#x27;extcron&#x27;: False, &#x27;runcron&#x27;: False, &#x27;run_system_tests&#x27;: False, &#x27;test&#x27;: None, &#x27;folder&#x27;: &#x27;/Users/dex/Copy/web2py&#x27;, &#x27;config&#x27;: &#x27;&#x27;, &#x27;minthreads&#x27;: None, &#x27;shell&#x27;: None, &#x27;run&#x27;: &#x27;&#x27;, &#x27;log_filename&#x27;: &#x27;httpserver.log&#x27;, &#x27;profiler_dir&#x27;: None, &#x27;args&#x27;: [&#x27;&#x27;], &#x27;socket_timeout&#x27;: 5, &#x27;ssl_ca_certificate&#x27;: None, &#x27;scheduler&#x27;: None, &#x27;interfaces&#x27;: None, &#x27;ssl_private_key&#x27;: &#x27;&#x27;, &#x27;scheduler_groups&#x27;: None, &#x27;password&#x27;: &#x27;&lt;ask&gt;&#x27;, &#x27;request_queue_size&#x27;: 5, &#x27;ssl_certificate&#x27;: &#x27;&#x27;, &#x27;cronjob&#x27;: False, &#x27;numthreads&#x27;: None, &#x27;quiet&#x27;: False, &#x27;import_models&#x27;: False, &#x27;timeout&#x27;: 10, &#x27;plain&#x27;: False, &#x27;nobanner&#x27;: False}&gt;</div></td></tr><tr><td style="font-weight:bold;vertical-align:top;">db_sessions</td><td style="vertical-align:top;">:</td><td><div>set([])</div></td></tr><tr><td style="font-weight:bold;vertical-align:top;">debugging</td><td style="vertical-align:top;">:</td><td><div>False</div></td></tr><tr><td style="font-weight:bold;vertical-align:top;">gluon_parent</td><td style="vertical-align:top;">:</td><td><div>/Users/dex/Copy/web2py</div></td></tr><tr><td style="font-weight:bold;vertical-align:top;">http_accept</td><td style="vertical-align:top;">:</td><td><div>text/html,application/xhtml+xml,application/xml;q=0.9,*/*;q=0.8</div></td></tr><tr><td style="font-weight:bold;vertical-align:top;">http_accept_encoding</td><td style="vertical-align:top;">:</td><td><div>gzip, deflate</div></td></tr><tr><td style="font-weight:bold;vertical-align:top;">http_accept_language</td><td style="vertical-align:top;">:</td><td><div>en-us</div></td></tr><tr><td style="font-weight:bold;vertical-align:top;">http_connection</td><td style="vertical-align:top;">:</td><td><div>keep-alive</div></td></tr><tr><td style="font-weight:bold;vertical-align:top;">http_cookie</td><td style="vertical-align:top;">:</td><td><div>__utma=96992031.610755589.1403713895.1405113638.1407260865.14; __utmb=96992031.3.10.1407260865; __utmc=96992031; __utmz=96992031.1403713895.1.1.utmcsr=(direct)|utmccn=(direct)|utmcmd=(none); session_id_admin=127.0.0.1-220c08fb-ed6b-443a-b0b0-527482ae7d45; session_id_init=127.0.0.1-89dadc0a-054b-4f27-a6dc-cae4f18e6c96</div></td></tr><tr><td style="font-weight:bold;vertical-align:top;">http_host</td><td style="vertical-align:top;">:</td><td><div>127.0.0.1:8000</div></td></tr><tr><td style="font-weight:bold;vertical-align:top;">http_user_agent</td><td style="vertical-align:top;">:</td><td><div>Mozilla/5.0 (Macintosh; Intel Mac OS X 10_9_4) AppleWebKit/537.77.4 (KHTML, like Gecko) Version/7.0.5 Safari/537.77.4</div></td></tr><tr><td style="font-weight:bold;vertical-align:top;">is_jython</td><td style="vertical-align:top;">:</td><td><div>False</div></td></tr><tr><td style="font-weight:bold;vertical-align:top;">is_pypy</td><td style="vertical-align:top;">:</td><td><div>False</div></td></tr><tr><td style="font-weight:bold;vertical-align:top;">is_source</td><td style="vertical-align:top;">:</td><td><div>True</div></td></tr><tr><td style="font-weight:bold;vertical-align:top;">local_hosts</td><td style="vertical-align:top;">:</td><td><div><table><tr><td><div>::1</div></td></tr><tr><td><div>dn2m1i7rs.sunet</div></td></tr><tr><td><div>::ffff:127.0.0.1</div></td></tr><tr><td><div>127.0.0.1</div></td></tr><tr><td><div>172.25.31.124</div></td></tr></table></div></td></tr><tr><td style="font-weight:bold;vertical-align:top;">path_info</td><td style="vertical-align:top;">:</td><td><div>/star</div></td></tr><tr><td style="font-weight:bold;vertical-align:top;">query_string</td><td style="vertical-align:top;">:</td><td><div></div></td></tr><tr><td style="font-weight:bold;vertical-align:top;">remote_addr</td><td style="vertical-align:top;">:</td><td><div>127.0.0.1</div></td></tr><tr><td style="font-weight:bold;vertical-align:top;">remote_port</td><td style="vertical-align:top;">:</td><td><div>61797</div></td></tr><tr><td style="font-weight:bold;vertical-align:top;">request_method</td><td style="vertical-align:top;">:</td><td><div>GET</div></td></tr><tr><td style="font-weight:bold;vertical-align:top;">request_uri</td><td style="vertical-align:top;">:</td><td><div>/star</div></td></tr><tr><td style="font-weight:bold;vertical-align:top;">script_name</td><td style="vertical-align:top;">:</td><td><div></div></td></tr><tr><td style="font-weight:bold;vertical-align:top;">server_name</td><td style="vertical-align:top;">:</td><td><div>dn2m1i7rs.sunet</div></td></tr><tr><td style="font-weight:bold;vertical-align:top;">server_port</td><td style="vertical-align:top;">:</td><td><div>8000</div></td></tr><tr><td style="font-weight:bold;vertical-align:top;">server_protocol</td><td style="vertical-align:top;">:</td><td><div>HTTP/1.1</div></td></tr><tr><td style="font-weight:bold;vertical-align:top;">server_software</td><td style="vertical-align:top;">:</td><td><div>Rocket 1.2.6</div></td></tr><tr><td style="font-weight:bold;vertical-align:top;">web2py_path</td><td style="vertical-align:top;">:</td><td><div>/Users/dex/Copy/web2py</div></td></tr><tr><td style="font-weight:bold;vertical-align:top;">web2py_version</td><td style="vertical-align:top;">:</td><td><div>2.9.5-stable+timestamp.2014.03.16.02.35.39</div></td></tr><tr><td style="font-weight:bold;vertical-align:top;">wsgi.errors</td><td style="vertical-align:top;">:</td><td><div>&lt;open file &#x27;&lt;stderr&gt;&#x27;, mode &#x27;w&#x27; at 0x1002951e0&gt;</div></td></tr><tr><td style="font-weight:bold;vertical-align:top;">wsgi.file_wrapper</td><td style="vertical-align:top;">:</td><td><div>&lt;class wsgiref.util.FileWrapper at 0x104d94188&gt;</div></td></tr><tr><td style="font-weight:bold;vertical-align:top;">wsgi.input</td><td style="vertical-align:top;">:</td><td><div>&lt;socket._fileobject object at 0x1119f5b50&gt;</div></td></tr><tr><td style="font-weight:bold;vertical-align:top;">wsgi.multiprocess</td><td style="vertical-align:top;">:</td><td><div>False</div></td></tr><tr><td style="font-weight:bold;vertical-align:top;">wsgi.multithread</td><td style="vertical-align:top;">:</td><td><div>True</div></td></tr><tr><td style="font-weight:bold;vertical-align:top;">wsgi.run_once</td><td style="vertical-align:top;">:</td><td><div>False</div></td></tr><tr><td style="font-weight:bold;vertical-align:top;">wsgi.url_scheme</td><td style="vertical-align:top;">:</td><td><div>http</div></td></tr><tr><td style="font-weight:bold;vertical-align:top;">wsgi.version</td><td style="vertical-align:top;">:</td><td><div><table><tr><td><div>1</div></td></tr><tr><td><div>0</div></td></tr></table></div></td></tr><tr><td style="font-weight:bold;vertical-align:top;">wsgi_errors</td><td style="vertical-align:top;">:</td><td><div>&lt;open file &#x27;&lt;stderr&gt;&#x27;, mode &#x27;w&#x27; at 0x1002951e0&gt;</div></td></tr><tr><td style="font-weight:bold;vertical-align:top;">wsgi_file_wrapper</td><td style="vertical-align:top;">:</td><td><div>&lt;class wsgiref.util.FileWrapper at 0x104d94188&gt;</div></td></tr><tr><td style="font-weight:bold;vertical-align:top;">wsgi_input</td><td style="vertical-align:top;">:</td><td><div>&lt;socket._fileobject object at 0x1119f5b50&gt;</div></td></tr><tr><td style="font-weight:bold;vertical-align:top;">wsgi_multiprocess</td><td style="vertical-align:top;">:</td><td><div>False</div></td></tr><tr><td style="font-weight:bold;vertical-align:top;">wsgi_multithread</td><td style="vertical-align:top;">:</td><td><div>True</div></td></tr><tr><td style="font-weight:bold;vertical-align:top;">wsgi_run_once</td><td style="vertical-align:top;">:</td><td><div>False</div></td></tr><tr><td style="font-weight:bold;vertical-align:top;">wsgi_url_scheme</td><td style="vertical-align:top;">:</td><td><div>http</div></td></tr><tr><td style="font-weight:bold;vertical-align:top;">wsgi_version</td><td style="vertical-align:top;">:</td><td><div><table><tr><td><div>1</div></td></tr><tr><td><div>0</div></td></tr></table></div></td></tr></table></div></td></tr><tr><td style="font-weight:bold;vertical-align:top;">extension</td><td style="vertical-align:top;">:</td><td><div>html</div></td></tr><tr><td style="font-weight:bold;vertical-align:top;">folder</td><td style="vertical-align:top;">:</td><td><div>/Users/dex/Copy/web2py/applications/star/</div></td></tr><tr><td style="font-weight:bold;vertical-align:top;">function</td><td style="vertical-align:top;">:</td><td><div>index</div></td></tr><tr><td style="font-weight:bold;vertical-align:top;">global_settings</td><td style="vertical-align:top;">:</td><td><div><table><tr><td style="font-weight:bold;vertical-align:top;">app_folders</td><td style="vertical-align:top;">:</td><td><div>set([&#x27;/Users/dex/Copy/web2py/applications/init/&#x27;, &#x27;/Users/dex/Copy/web2py/applications/star/&#x27;])</div></td></tr><tr><td style="font-weight:bold;vertical-align:top;">applications_parent</td><td style="vertical-align:top;">:</td><td><div>/Users/dex/Copy/web2py</div></td></tr><tr><td style="font-weight:bold;vertical-align:top;">cmd_args</td><td style="vertical-align:top;">:</td><td><div><table></table></div></td></tr><tr><td style="font-weight:bold;vertical-align:top;">cmd_options</td><td style="vertical-align:top;">:</td><td><div>&lt;Values at 0x104e073f8: {&#x27;verbose&#x27;: False, &#x27;ip&#x27;: &#x27;127.0.0.1&#x27;, &#x27;debuglevel&#x27;: 30, &#x27;with_scheduler&#x27;: False, &#x27;ips&#x27;: [&#x27;172.25.31.124&#x27;], &#x27;shutdown_timeout&#x27;: 5, &#x27;taskbar&#x27;: False, &#x27;with_coverage&#x27;: False, &#x27;port&#x27;: 8000, &#x27;maxthreads&#x27;: None, &#x27;softcron&#x27;: False, &#x27;server_name&#x27;: &#x27;dn2m1i7rs.sunet&#x27;, &#x27;bpython&#x27;: False, &#x27;nogui&#x27;: False, &#x27;pid_filename&#x27;: &#x27;httpserver.pid&#x27;, &#x27;extcron&#x27;: False, &#x27;runcron&#x27;: False, &#x27;run_system_tests&#x27;: False, &#x27;test&#x27;: None, &#x27;folder&#x27;: &#x27;/Users/dex/Copy/web2py&#x27;, &#x27;config&#x27;: &#x27;&#x27;, &#x27;minthreads&#x27;: None, &#x27;shell&#x27;: None, &#x27;run&#x27;: &#x27;&#x27;, &#x27;log_filename&#x27;: &#x27;httpserver.log&#x27;, &#x27;profiler_dir&#x27;: None, &#x27;args&#x27;: [&#x27;&#x27;], &#x27;socket_timeout&#x27;: 5, &#x27;ssl_ca_certificate&#x27;: None, &#x27;scheduler&#x27;: None, &#x27;interfaces&#x27;: None, &#x27;ssl_private_key&#x27;: &#x27;&#x27;, &#x27;scheduler_groups&#x27;: None, &#x27;password&#x27;: &#x27;&lt;ask&gt;&#x27;, &#x27;request_queue_size&#x27;: 5, &#x27;ssl_certificate&#x27;: &#x27;&#x27;, &#x27;cronjob&#x27;: False, &#x27;numthreads&#x27;: None, &#x27;quiet&#x27;: False, &#x27;import_models&#x27;: False, &#x27;timeout&#x27;: 10, &#x27;plain&#x27;: False, &#x27;nobanner&#x27;: False}&gt;</div></td></tr><tr><td style="font-weight:bold;vertical-align:top;">db_sessions</td><td style="vertical-align:top;">:</td><td><div>set([])</div></td></tr><tr><td style="font-weight:bold;vertical-align:top;">debugging</td><td style="vertical-align:top;">:</td><td><div>False</div></td></tr><tr><td style="font-weight:bold;vertical-align:top;">gluon_parent</td><td style="vertical-align:top;">:</td><td><div>/Users/dex/Copy/web2py</div></td></tr><tr><td style="font-weight:bold;vertical-align:top;">is_jython</td><td style="vertical-align:top;">:</td><td><div>False</div></td></tr><tr><td style="font-weight:bold;vertical-align:top;">is_pypy</td><td style="vertical-align:top;">:</td><td><div>False</div></td></tr><tr><td style="font-weight:bold;vertical-align:top;">is_source</td><td style="vertical-align:top;">:</td><td><div>True</div></td></tr><tr><td style="font-weight:bold;vertical-align:top;">local_hosts</td><td style="vertical-align:top;">:</td><td><div><table><tr><td><div>::1</div></td></tr><tr><td><div>dn2m1i7rs.sunet</div></td></tr><tr><td><div>::ffff:127.0.0.1</div></td></tr><tr><td><div>127.0.0.1</div></td></tr><tr><td><div>172.25.31.124</div></td></tr></table></div></td></tr><tr><td style="font-weight:bold;vertical-align:top;">web2py_version</td><td style="vertical-align:top;">:</td><td><div>2.9.5-stable+timestamp.2014.03.16.02.35.39</div></td></tr></table></div></td></tr><tr><td style="font-weight:bold;vertical-align:top;">is_https</td><td style="vertical-align:top;">:</td><td><div>False</div></td></tr><tr><td style="font-weight:bold;vertical-align:top;">is_local</td><td style="vertical-align:top;">:</td><td><div>True</div></td></tr><tr><td style="font-weight:bold;vertical-align:top;">is_restful</td><td style="vertical-align:top;">:</td><td><div>False</div></td></tr><tr><td style="font-weight:bold;vertical-align:top;">now</td><td style="vertical-align:top;">:</td><td><div>datetime.datetime(2014, 8, 5, 10, 50, 29, 673341)</div></td></tr><tr><td style="font-weight:bold;vertical-align:top;">raw_args</td><td style="vertical-align:top;">:</td><td><div></div></td></tr><tr><td style="font-weight:bold;vertical-align:top;">raw_extension</td><td style="vertical-align:top;">:</td><td><div>None</div></td></tr><tr><td style="font-weight:bold;vertical-align:top;">url</td><td style="vertical-align:top;">:</td><td><div>/star</div></td></tr><tr><td style="font-weight:bold;vertical-align:top;">utcnow</td><td style="vertical-align:top;">:</td><td><div>datetime.datetime(2014, 8, 5, 17, 50, 29, 673347)</div></td></tr><tr><td style="font-weight:bold;vertical-align:top;">uuid</td><td style="vertical-align:top;">:</td><td><div>star/127.0.0.1.2014-08-05.10-50-29.7713bf10-19fb-410a-899c-021b3a487132</div></td></tr><tr><td style="font-weight:bold;vertical-align:top;">wsgi</td><td style="vertical-align:top;">:</td><td><div>&lt;gluon.main.LazyWSGI object at 0x111a3d1d0&gt;</div></td></tr></table></div>'
tRp70
sS'frames'
p71
(lp72
(dp73
S'file'
p74
S'/Users/dex/Copy/web2py/gluon/restricted.py'
p75
sS'dump'
p76
(dp77
S'environment'
p78
S"{'A': <class 'gluon.html.A'>, 'ANY_OF': <class 'gluon.validators.ANY_OF'>, 'Annotation': <Table annotation (id,name,description,is_active,created_on,created_by,modified_on,modified_by)>, 'Auth': <class 'gluon.tools.Auth'>, 'B': <class 'gluon.html.B'>, 'BEAUTIFY': <class 'gluon.html.BEAUTIFY'>, 'BODY': <class 'gluon.html.BODY'>, 'BR': <class 'gluon.html.BR'>, 'BUTTON': <class 'gluon.html.BUTTON'>, 'CAT': <class 'gluon.html.CAT'>, ...}"
p79
sS'ccode'
p80
S'<code object <module> at 0x1118a7f30, file "/Use...eb2py/applications/star/models/my_db.py", line 1>'
p81
ssS'lnum'
p82
I220
sS'lines'
p83
(dp84
I224
S'        # do not encapsulate (obfuscate) the original RestrictedError'
p85
sI215
S'    try:'
p86
sI216
S'        if isinstance(code, types.CodeType):'
p87
sI217
S'            ccode = code'
p88
sI218
S'        else:'
p89
sI219
S'            ccode = compile2(code, layer)'
p90
sI220
S'        exec ccode in environment'
p91
sI221
S'    except HTTP:'
p92
sI222
S'        raise'
p93
sI223
S'    except RestrictedError:'
p94
ssS'call'
p95
S'(code="__author__ = \'dex\'\\nresponse.generic_patterns = [...                        migrate=\'search.table\'\\n)\\n", environment={\'A\': <class \'gluon.html.A\'>, \'ANY_OF\': <class \'gluon.validators.ANY_OF\'>, \'Annotation\': <Table annotation (id,name,description,is_active,created_on,created_by,modified_on,modified_by)>, \'Auth\': <class \'gluon.tools.Auth\'>, \'B\': <class \'gluon.html.B\'>, \'BEAUTIFY\': <class \'gluon.html.BEAUTIFY\'>, \'BODY\': <class \'gluon.html.BODY\'>, \'BR\': <class \'gluon.html.BR\'>, \'BUTTON\': <class \'gluon.html.BUTTON\'>, \'CAT\': <class \'gluon.html.CAT\'>, ...}, layer=\'/Users/dex/Copy/web2py/applications/star/models/my_db.py\')'
p96
sS'func'
p97
S'restricted'
p98
sa(dp99
g74
S'/Users/dex/Copy/web2py/applications/star/models/my_db.py'
p100
sg76
(dp101
S'migrate'
p102
S'undefined'
p103
ssg82
I66
sg83
(dp104
I64
S'                                   auth.signature,'
p105
sI65
S"                                   format='%(col)s_%(regex)s',"
p106
sI66
S'                                   migrate="series_annotation.table"'
p107
sI67
S')'
sI68
S''
sI69
S"Sample_Annotation = db.define_table('sample_annotation',"
p108
sI70
S"                                    Field('series_annotation_id', 'reference series_annotation'),"
p109
sI61
S"                                   Field('annotation_id', 'reference annotation'),"
p110
sI62
S"                                   Field('col'),"
p111
sI63
S"                                   Field('regex'),"
p112
ssg95
S'()'
p113
sg97
S'<module>'
p114
sa(dp115
g74
S'/Users/dex/Copy/web2py/gluon/dal.py'
p116
sg76
(dp117
S'fields'
p118
S'(<gluon.dal.Field object>, <gluon.dal.Field object>, <gluon.dal.Field object>, <gluon.dal.Field object>, <gluon.dal.Field object>, <Table auth_signature (id,is_active,created_on,created_by,modified_on,modified_by)>)'
p119
sS'self'
p120
S'<DAL uri="postgres:******@localhost/star">'
p121
sS'args'
p122
S"{'format': '%(col)s_%(regex)s', 'migrate': 'series_annotation.table'}"
p123
sS'tablename'
p124
S"'series_annotation'"
p125
sS'table'
p126
g103
sS'self.lazy_define_table'
p127
S'<bound method DAL.lazy_define_table of <DAL uri="postgres:******@localhost/star">>'
p128
ssg82
I8223
sg83
(dp129
I8224
S'        if not tablename in self.tables:'
p130
sI8225
S'            self.tables.append(tablename)'
p131
sI8226
S'        return table'
p132
sI8227
S''
sI8218
S'                    % (tablename,invalid_args))'
p133
sI8219
S'        if self._lazy_tables and not tablename in self._LAZY_TABLES:'
p134
sI8220
S'            self._LAZY_TABLES[tablename] = (tablename,fields,args)'
p135
sI8221
S'            table = None'
p136
sI8222
S'        else:'
p137
sI8223
S'            table = self.lazy_define_table(tablename,*fields,**args)'
p138
ssg95
S'(self=<DAL uri="postgres:******@localhost/star">, tablename=\'series_annotation\', *fields=(<gluon.dal.Field object>, <gluon.dal.Field object>, <gluon.dal.Field object>, <gluon.dal.Field object>, <gluon.dal.Field object>, <Table auth_signature (id,is_active,created_on,created_by,modified_on,modified_by)>), **args={\'format\': \'%(col)s_%(regex)s\', \'migrate\': \'series_annotation.table\'})'
p139
sg97
S'define_table'
p140
sa(dp141
g74
S'/Users/dex/Copy/web2py/gluon/dal.py'
p142
sg76
(dp143
S'polymodel'
p144
S'None'
p145
ssg82
I8260
sg83
(dp146
I8256
S'                GLOBAL_LOCKER.acquire()'
p147
sI8257
S'                self._lastsql = self._adapter.create_table('
p148
sI8258
S'                    table,migrate=migrate,'
p149
sI8259
S'                    fake_migrate=fake_migrate,'
p150
sI8260
S'                    polymodel=polymodel)'
p151
sI8261
S'            finally:'
p152
sI8262
S'                GLOBAL_LOCKER.release()'
p153
sI8263
S'        else:'
p154
sI8264
S'            table._dbt = None'
p155
sI8255
S'            try:'
p156
ssg95
S'(self=<DAL uri="postgres:******@localhost/star">, tablename=\'series_annotation\', *fields=(<gluon.dal.Field object>, <gluon.dal.Field object>, <gluon.dal.Field object>, <gluon.dal.Field object>, <gluon.dal.Field object>, <Table auth_signature (id,is_active,created_on,created_by,modified_on,modified_by)>), **args={\'format\': \'%(col)s_%(regex)s\', \'migrate\': \'series_annotation.table\'})'
p157
sg97
S'lazy_define_table'
p158
sa(dp159
g74
S'/Users/dex/Copy/web2py/gluon/dal.py'
p160
sg76
(dp161
S'query'
p162
S"'CREATE TABLE series_annotation(\\n    id SERIAL PR...ER REFERENCES auth_user (id) ON DELETE CASCADE\\n);'"
p163
sS'self'
p164
S'<gluon.dal.PostgreSQLAdapter object>'
p165
sS'table'
p166
S'<Table series_annotation (id,seri  es_id,platfor...e,created_on,created_by,modified_on,modified_by)>'
p167
sS'self.create_sequence_and_triggers'
p168
S'<bound method PostgreSQLAdapter.create_sequence_...triggers of <gluon.dal.PostgreSQLAdapter object>>'
p169
ssg82
I1104
sg83
(dp170
I1099
S'            if table._dbt:'
p171
sI1100
S"                self.log('timestamp: %s\\n%s\\n'"
p172
sI1101
S'                         % (datetime.datetime.today().isoformat(),'
p173
sI1102
S'                            query), table)'
p174
sI1103
S'            if not fake_migrate:'
p175
sI1104
S'                self.create_sequence_and_triggers(query,table)'
p176
sI1105
S'                table._db.commit()'
p177
sI1106
S'                # Postgres geom fields are added now,'
p178
sI1107
S'                # after the table has been created'
p179
sI1108
S'                for query in postcreation_fields:'
p180
ssg95
S"(self=<gluon.dal.PostgreSQLAdapter object>, table=<Table series_annotation (id,seri  es_id,platfor...e,created_on,created_by,modified_on,modified_by)>, migrate='series_annotation.table', fake_migrate=False, polymodel=None)"
p181
sg97
S'create_table'
p182
sa(dp183
g74
S'/Users/dex/Copy/web2py/gluon/dal.py'
p184
sg76
(dp185
S'query'
p186
S"'CREATE TABLE series_annotation(\\n    id SERIAL PR...ER REFERENCES auth_user (id) ON DELETE CASCADE\\n);'"
p187
sS'self'
p188
S'<gluon.dal.PostgreSQLAdapter object>'
p189
sS'self.execute'
p190
S'<bound method PostgreSQLAdapter.execute of <gluon.dal.PostgreSQLAdapter object>>'
p191
ssg82
I2817
sg83
(dp192
I2816
S'        #              % (table._tablename, table._fieldname, table._sequence_name))'
p193
sI2817
S'        self.execute(query)'
p194
sI2818
S''
sI2819
S"    REGEX_URI = re.compile('^(?P<user>[^:@]+)(\\:(?P<password>[^@]*))?@(?P<host>[^\\:@]+)(\\:(?P<port>[0-9]+))?/(?P<db>[^\\?]+)(\\?sslmode=(?P<sslmode>.+))?$')"
p195
sI2820
S''
sI2821
S"    def __init__(self,db,uri,pool_size=0,folder=None,db_codec ='UTF-8',"
p196
sI2812
S'    def create_sequence_and_triggers(self, query, table, **args):'
p197
sI2813
S'        # following lines should only be executed if table._sequence_name does not exist'
p198
sI2814
S"        # self.execute('CREATE SEQUENCE %s;' % table._sequence_name)"
p199
sI2815
S'        # self.execute("ALTER TABLE %s ALTER COLUMN %s SET DEFAULT NEXTVAL(\'%s\');" \\'
p200
ssg95
S"(self=<gluon.dal.PostgreSQLAdapter object>, query='CREATE TABLE series_annotation(\\n    id SERIAL PR...ER REFERENCES auth_user (id) ON DELETE CASCADE\\n);', table=<Table series_annotation (id,seri  es_id,platfor...e,created_on,created_by,modified_on,modified_by)>, **args={})"
p201
sg97
S'create_sequence_and_triggers'
p202
sa(dp203
g74
S'/Users/dex/Copy/web2py/gluon/dal.py'
p204
sg76
(dp205
S'a'
S"('CREATE TABLE series_annotation(\\n    id SERIAL PR...ER REFERENCES auth_user (id) ON DELETE CASCADE\\n);',)"
p206
sS'self'
p207
S'<gluon.dal.PostgreSQLAdapter object>'
p208
sS'b'
g21
sS'self.log_execute'
p209
S'<bound method PostgreSQLAdapter.log_execute of <gluon.dal.PostgreSQLAdapter object>>'
p210
ssg82
I1969
sg83
(dp211
I1964
S'        self.db._timings.append((command,time.time()-t0))'
p212
sI1965
S'        del self.db._timings[:-TIMINGSSIZE]'
p213
sI1966
S'        return ret'
p214
sI1967
S''
sI1968
S'    def execute(self, *a, **b):'
p215
sI1969
S'        return self.log_execute(*a, **b)'
p216
sI1970
S''
sI1971
S'    def represent(self, obj, fieldtype):'
p217
sI1972
S'        field_is_type = fieldtype.startswith'
p218
sI1973
S'        if isinstance(obj, CALLABLETYPES):'
p219
ssg95
S"(self=<gluon.dal.PostgreSQLAdapter object>, *a=('CREATE TABLE series_annotation(\\n    id SERIAL PR...ER REFERENCES auth_user (id) ON DELETE CASCADE\\n);',), **b={})"
p220
sg97
S'execute'
p221
sa(dp222
g74
S'/Users/dex/Copy/web2py/gluon/dal.py'
p223
sg76
(dp224
S'a'
S"('CREATE TABLE series_annotation(\\n    id SERIAL PR...ER REFERENCES auth_user (id) ON DELETE CASCADE\\n);',)"
p225
sS'b'
g21
sS'self'
p226
S'<gluon.dal.PostgreSQLAdapter object>'
p227
sS'ret'
p228
g103
sS'self.cursor'
p229
S'<cursor object at 0x111a44050; closed: 0>'
p230
sS'command'
p231
S"'CREATE TABLE series_annotation(\\n    id SERIAL PR...ER REFERENCES auth_user (id) ON DELETE CASCADE\\n);'"
p232
sS'self.cursor.execute'
p233
S'<built-in method execute of psycopg2._psycopg.cursor object>'
p234
ssg82
I1963
sg83
(dp235
I1958
S'            command = self.filter_sql_command(command)'
p236
sI1959
S'        if self.db._debug:'
p237
sI1960
S"            LOGGER.debug('SQL: %s' % command)"
p238
sI1961
S'        self.db._lastsql = command'
p239
sI1962
S'        t0 = time.time()'
p240
sI1963
S'        ret = self.cursor.execute(command, *a[1:], **b)'
p241
sI1964
S'        self.db._timings.append((command,time.time()-t0))'
p242
sI1965
S'        del self.db._timings[:-TIMINGSSIZE]'
p243
sI1966
S'        return ret'
p244
sI1967
S''
ssg95
S"(self=<gluon.dal.PostgreSQLAdapter object>, *a=('CREATE TABLE series_annotation(\\n    id SERIAL PR...ER REFERENCES auth_user (id) ON DELETE CASCADE\\n);',), **b={})"
p245
sg97
S'log_execute'
p246
sasS'pyver'
p247
S'Python 2.7.7: /Users/dex/anaconda/bin/python (prefix: /Users/dex/anaconda)'
p248
sS'session'
p249
g69
(S's\x1a\x00\x00\x00<div><table></table></div>'
tRp250
sS'etype'
p251
S"<class 'psycopg2.ProgrammingError'>"
p252
sS'date'
p253
S'Tue Aug  5 10:50:29 2014'
p254
sS'response'
p255
g69
(S's\x0f0\x00\x00<div><table><tr><td style="font-weight:bold;vertical-align:top;">body</td><td style="vertical-align:top;">:</td><td><div>&lt;cStringIO.StringO object at 0x111a37ce0&gt;</div></td></tr><tr><td style="font-weight:bold;vertical-align:top;">cookies</td><td style="vertical-align:top;">:</td><td><div><table><tr><td style="font-weight:bold;vertical-align:top;">session_id_star</td><td style="vertical-align:top;">:</td><td><div>127.0.0.1-60009df0-f30f-4948-9be1-cea2b5ee9bcf<table><tr><td style="font-weight:bold;vertical-align:top;">comment</td><td style="vertical-align:top;">:</td><td><div></div></td></tr><tr><td style="font-weight:bold;vertical-align:top;">domain</td><td style="vertical-align:top;">:</td><td><div></div></td></tr><tr><td style="font-weight:bold;vertical-align:top;">expires</td><td style="vertical-align:top;">:</td><td><div></div></td></tr><tr><td style="font-weight:bold;vertical-align:top;">httponly</td><td style="vertical-align:top;">:</td><td><div></div></td></tr><tr><td style="font-weight:bold;vertical-align:top;">max-age</td><td style="vertical-align:top;">:</td><td><div></div></td></tr><tr><td style="font-weight:bold;vertical-align:top;">path</td><td style="vertical-align:top;">:</td><td><div>/</div></td></tr><tr><td style="font-weight:bold;vertical-align:top;">secure</td><td style="vertical-align:top;">:</td><td><div></div></td></tr><tr><td style="font-weight:bold;vertical-align:top;">version</td><td style="vertical-align:top;">:</td><td><div></div></td></tr></table></div></td></tr></table></div></td></tr><tr><td style="font-weight:bold;vertical-align:top;">delimiters</td><td style="vertical-align:top;">:</td><td><div><table><tr><td><div>{{</div></td></tr><tr><td><div>}}</div></td></tr></table></div></td></tr><tr><td style="font-weight:bold;vertical-align:top;">files</td><td style="vertical-align:top;">:</td><td><div><table></table></div></td></tr><tr><td style="font-weight:bold;vertical-align:top;">flash</td><td style="vertical-align:top;">:</td><td><div></div></td></tr><tr><td style="font-weight:bold;vertical-align:top;">generic_patterns</td><td style="vertical-align:top;">:</td><td><div><table><tr><td><div>.html</div></td></tr></table></div></td></tr><tr><td style="font-weight:bold;vertical-align:top;">google_analytics_id</td><td style="vertical-align:top;">:</td><td><div>None</div></td></tr><tr><td style="font-weight:bold;vertical-align:top;">headers</td><td style="vertical-align:top;">:</td><td><div><table><tr><td style="font-weight:bold;vertical-align:top;">X-Powered-By</td><td style="vertical-align:top;">:</td><td><div>web2py</div></td></tr></table></div></td></tr><tr><td style="font-weight:bold;vertical-align:top;">logo</td><td style="vertical-align:top;">:</td><td><div><a class="brand" href="http://www.web2py.com/"><b>web<span>2</span>py</b>&trade;&nbsp;</a></div></td></tr><tr><td style="font-weight:bold;vertical-align:top;">menu</td><td style="vertical-align:top;">:</td><td><div><table><tr><td><div><table><tr><td><div>Home</div></td></tr><tr><td><div>False</div></td></tr><tr><td><div>/star/default/index</div></td></tr><tr><td><div><table></table></div></td></tr></table></div></td></tr><tr><td><div><table><tr><td><div><span class="highlighted">web2py</span></div></td></tr><tr><td><div>False</div></td></tr><tr><td><div>http://web2py.com</div></td></tr><tr><td><div><table><tr><td><div><table><tr><td><div>My Sites</div></td></tr><tr><td><div>False</div></td></tr><tr><td><div>/admin/default/site</div></td></tr></table></div></td></tr><tr><td><div><table><tr><td><div>This App</div></td></tr><tr><td><div>False</div></td></tr><tr><td><div>/admin/default/design/star</div></td></tr><tr><td><div>[(&lt;lazyT &#x27;Controller&#x27;&gt;, False, &#x27;/admin/default/edit/star/controllers/default.py&#x27;), (&lt;lazyT &#x27;View&#x27;&gt;, False, &#x27;/admin/default/edit/star/views/default/index.html&#x27;), (&lt;lazyT &#x27;Layout&#x27;&gt;, False, &#x27;/admin/default/edit/star/views/layout.html&#x27;), (&lt;lazyT &#x27;Stylesheet&#x27;&gt;, False, &#x27;/admin/default/edit/star/static/css/web2py.css&#x27;), (&lt;lazyT &#x27;DB Model&#x27;&gt;, False, &#x27;/admin/default/edit/star/models/db.py&#x27;), (&lt;lazyT &#x27;Menu Model&#x27;&gt;, False, &#x27;/admin/default/edit/star/models/menu.py&#x27;), (&lt;lazyT &#x27;Database&#x27;&gt;, False, &#x27;/star/appadmin/index&#x27;), (&lt;lazyT &#x27;Errors&#x27;&gt;, False, &#x27;/admin/default/errors/star&#x27;), (&lt;lazyT &#x27;About&#x27;&gt;, False, &#x27;/admin/default/about/star&#x27;)]</div></td></tr></table></div></td></tr><tr><td><div><table><tr><td><div>web2py.com</div></td></tr><tr><td><div>False</div></td></tr><tr><td><div>http://www.web2py.com</div></td></tr><tr><td><div>[(&lt;lazyT &#x27;Download&#x27;&gt;, False, &#x27;http://www.web2py.com/examples/default/download&#x27;), (&lt;lazyT &#x27;Support&#x27;&gt;, False, &#x27;http://www.web2py.com/examples/default/support&#x27;), (&lt;lazyT &#x27;Demo&#x27;&gt;, False, &#x27;http://web2py.com/demo_admin&#x27;), (&lt;lazyT &#x27;Quick Examples&#x27;&gt;, False, &#x27;http://web2py.com/examples/default/examples&#x27;), (&lt;lazyT &#x27;FAQ&#x27;&gt;, False, &#x27;http://web2py.com/AlterEgo&#x27;), (&lt;lazyT &#x27;Videos&#x27;&gt;, False, &#x27;http://www.web2py.com/examples/default/videos/&#x27;), (&lt;lazyT &#x27;Free Applications&#x27;&gt;, False, &#x27;http://web2py.com/appliances&#x27;), (&lt;lazyT &#x27;Plugins&#x27;&gt;, False, &#x27;http://web2py.com/plugins&#x27;), (&lt;lazyT &#x27;Layouts&#x27;&gt;, False, &#x27;http://web2py.com/layouts&#x27;), (&lt;lazyT &#x27;Recipes&#x27;&gt;, False, &#x27;http://web2pyslices.com/&#x27;), (&lt;lazyT &#x27;Semantic&#x27;&gt;, False, &#x27;http://web2py.com/semantic&#x27;)]</div></td></tr></table></div></td></tr><tr><td><div><table><tr><td><div>Documentation</div></td></tr><tr><td><div>False</div></td></tr><tr><td><div>http://www.web2py.com/book</div></td></tr><tr><td><div>[(&lt;lazyT &#x27;Preface&#x27;&gt;, False, &#x27;http://www.web2py.com/book/default/chapter/00&#x27;), (&lt;lazyT &#x27;Introduction&#x27;&gt;, False, &#x27;http://www.web2py.com/book/default/chapter/01&#x27;), (&lt;lazyT &#x27;Python&#x27;&gt;, False, &#x27;http://www.web2py.com/book/default/chapter/02&#x27;), (&lt;lazyT &#x27;Overview&#x27;&gt;, False, &#x27;http://www.web2py.com/book/default/chapter/03&#x27;), (&lt;lazyT &#x27;The Core&#x27;&gt;, False, &#x27;http://www.web2py.com/book/default/chapter/04&#x27;), (&lt;lazyT &#x27;The Views&#x27;&gt;, False, &#x27;http://www.web2py.com/book/default/chapter/05&#x27;), (&lt;lazyT &#x27;Database&#x27;&gt;, False, &#x27;http://www.web2py.com/book/default/chapter/06&#x27;), (&lt;lazyT &#x27;Forms and Validators&#x27;&gt;, False, &#x27;http://www.web2py.com/book/default/chapter/07&#x27;), (&lt;lazyT &#x27;Email and SMS&#x27;&gt;, False, &#x27;http://www.web2py.com/book/default/chapter/08&#x27;), (&lt;lazyT &#x27;Access Control&#x27;&gt;, False, &#x27;http://www.web2py.com/book/default/chapter/09&#x27;), (&lt;lazyT &#x27;Services&#x27;&gt;, False, &#x27;http://www.web2py.com/book/default/chapter/10&#x27;), (&lt;lazyT &#x27;Ajax Recipes&#x27;&gt;, False, &#x27;http://www.web2py.com/book/default/chapter/11&#x27;), (&lt;lazyT &#x27;Components and Plugins&#x27;&gt;, False, &#x27;http://www.web2py.com/book/default/chapter/12&#x27;), (&lt;lazyT &#x27;Deployment Recipes&#x27;&gt;, False, &#x27;http://www.web2py.com/book/default/chapter/13&#x27;), (&lt;lazyT &#x27;Other Recipes&#x27;&gt;, False, &#x27;http://www.web2py.com/book/default/chapter/14&#x27;), (&lt;lazyT &#x27;Buy this book&#x27;&gt;, False, &#x27;http://stores.lulu.com/web2py&#x27;)]</div></td></tr></table></div></td></tr><tr><td><div><table><tr><td><div>Community</div></td></tr><tr><td><div>False</div></td></tr><tr><td><div>None</div></td></tr><tr><td><div>[(&lt;lazyT &#x27;Groups&#x27;&gt;, False, &#x27;http://www.web2py.com/examples/default/usergroups&#x27;), (&lt;lazyT &#x27;Twitter&#x27;&gt;, False, &#x27;http://twitter.com/web2py&#x27;), (&lt;lazyT &#x27;Live Chat&#x27;&gt;, False, &#x27;http://webchat.freenode.net/?channels=web2py&#x27;)]</div></td></tr></table></div></td></tr><tr><td><div><table><tr><td><div>Plugins</div></td></tr><tr><td><div>False</div></td></tr><tr><td><div>None</div></td></tr><tr><td><div>[(&#x27;plugin_wiki&#x27;, False, &#x27;http://web2py.com/examples/default/download&#x27;), (&lt;lazyT &#x27;Other Plugins&#x27;&gt;, False, &#x27;http://web2py.com/plugins&#x27;), (&lt;lazyT &#x27;Layout Plugins&#x27;&gt;, False, &#x27;http://web2py.com/layouts&#x27;)]</div></td></tr></table></div></td></tr></table></div></td></tr></table></div></td></tr></table></div></td></tr><tr><td style="font-weight:bold;vertical-align:top;">meta</td><td style="vertical-align:top;">:</td><td><div><table><tr><td style="font-weight:bold;vertical-align:top;">author</td><td style="vertical-align:top;">:</td><td><div>Your Name &lt;you@example.com&gt;</div></td></tr><tr><td style="font-weight:bold;vertical-align:top;">generator</td><td style="vertical-align:top;">:</td><td><div>Web2py Web Framework</div></td></tr><tr><td style="font-weight:bold;vertical-align:top;">keywords</td><td style="vertical-align:top;">:</td><td><div>web2py, python, framework</div></td></tr></table></div></td></tr><tr><td style="font-weight:bold;vertical-align:top;">models_to_run</td><td style="vertical-align:top;">:</td><td><div><table><tr><td><div>^\\w+\\.py$</div></td></tr><tr><td><div>^default/\\w+\\.py$</div></td></tr><tr><td><div>^default/index/\\w+\\.py$</div></td></tr></table></div></td></tr><tr><td style="font-weight:bold;vertical-align:top;">postprocessing</td><td style="vertical-align:top;">:</td><td><div><table></table></div></td></tr><tr><td style="font-weight:bold;vertical-align:top;">session_client</td><td style="vertical-align:top;">:</td><td><div>127.0.0.1</div></td></tr><tr><td style="font-weight:bold;vertical-align:top;">session_cookie_compression_level</td><td style="vertical-align:top;">:</td><td><div>None</div></td></tr><tr><td style="font-weight:bold;vertical-align:top;">session_cookie_expires</td><td style="vertical-align:top;">:</td><td><div>None</div></td></tr><tr><td style="font-weight:bold;vertical-align:top;">session_cookie_key</td><td style="vertical-align:top;">:</td><td><div>None</div></td></tr><tr><td style="font-weight:bold;vertical-align:top;">session_data_name</td><td style="vertical-align:top;">:</td><td><div>session_data_star</div></td></tr><tr><td style="font-weight:bold;vertical-align:top;">session_file</td><td style="vertical-align:top;">:</td><td><div>None</div></td></tr><tr><td style="font-weight:bold;vertical-align:top;">session_filename</td><td style="vertical-align:top;">:</td><td><div>/Users/dex/Copy/web2py/applications/star/sessions/127.0.0.1-60009df0-f30f-4948-9be1-cea2b5ee9bcf</div></td></tr><tr><td style="font-weight:bold;vertical-align:top;">session_hash</td><td style="vertical-align:top;">:</td><td><div>106f4c22ca06cc343e42b73a0d8492f6</div></td></tr><tr><td style="font-weight:bold;vertical-align:top;">session_id</td><td style="vertical-align:top;">:</td><td><div>127.0.0.1-60009df0-f30f-4948-9be1-cea2b5ee9bcf</div></td></tr><tr><td style="font-weight:bold;vertical-align:top;">session_id_name</td><td style="vertical-align:top;">:</td><td><div>session_id_star</div></td></tr><tr><td style="font-weight:bold;vertical-align:top;">session_masterapp</td><td style="vertical-align:top;">:</td><td><div>star</div></td></tr><tr><td style="font-weight:bold;vertical-align:top;">session_new</td><td style="vertical-align:top;">:</td><td><div>True</div></td></tr><tr><td style="font-weight:bold;vertical-align:top;">session_storage_type</td><td style="vertical-align:top;">:</td><td><div>file</div></td></tr><tr><td style="font-weight:bold;vertical-align:top;">status</td><td style="vertical-align:top;">:</td><td><div>200</div></td></tr><tr><td style="font-weight:bold;vertical-align:top;">subtitle</td><td style="vertical-align:top;">:</td><td><div></div></td></tr><tr><td style="font-weight:bold;vertical-align:top;">title</td><td style="vertical-align:top;">:</td><td><div>Star</div></td></tr><tr><td style="font-weight:bold;vertical-align:top;">view</td><td style="vertical-align:top;">:</td><td><div>default/index.html</div></td></tr></table></div>'
tRp256
sS'locals'
p257
(dp258
S'a'
S"('CREATE TABLE series_annotation(\\n    id SERIAL PR...ER REFERENCES auth_user (id) ON DELETE CASCADE\\n);',)"
p259
sS'self'
p260
S'<gluon.dal.PostgreSQLAdapter object>'
p261
sS'b'
g21
sS'command'
p262
S"'CREATE TABLE series_annotation(\\n    id SERIAL PR...ER REFERENCES auth_user (id) ON DELETE CASCADE\\n);'"
p263
sS't0'
p264
S'1407261029.712492'
p265
sssS'traceback'
p266
S'Traceback (most recent call last):\n  File "/Users/dex/Copy/web2py/gluon/restricted.py", line 220, in restricted\n    exec ccode in environment\n  File "/Users/dex/Copy/web2py/applications/star/models/my_db.py", line 66, in <module>\n    migrate="series_annotation.table"\n  File "/Users/dex/Copy/web2py/gluon/dal.py", line 8223, in define_table\n    table = self.lazy_define_table(tablename,*fields,**args)\n  File "/Users/dex/Copy/web2py/gluon/dal.py", line 8260, in lazy_define_table\n    polymodel=polymodel)\n  File "/Users/dex/Copy/web2py/gluon/dal.py", line 1104, in create_table\n    self.create_sequence_and_triggers(query,table)\n  File "/Users/dex/Copy/web2py/gluon/dal.py", line 2817, in create_sequence_and_triggers\n    self.execute(query)\n  File "/Users/dex/Copy/web2py/gluon/dal.py", line 1969, in execute\n    return self.log_execute(*a, **b)\n  File "/Users/dex/Copy/web2py/gluon/dal.py", line 1963, in log_execute\n    ret = self.cursor.execute(command, *a[1:], **b)\nProgrammingError: syntax error at or near "INTEGER"\nLINE 3:     seri  es_id INTEGER REFERENCES series (id) ON DELETE CAS...\n                        ^\n\n'
p267
s.