(dp1
S'output'
p2
S'<class \'gluon.contrib.pg8000.errors.ProgrammingError\'> (\'ERROR\', \'42P01\', \'relation "sample_annotation" does not exist\')'
p3
sS'layer'
p4
S'/Users/dex/Copy/web2py/applications/init/controllers/default.py'
p5
sS'code'
p6
S'# -*- coding: utf-8 -*-\n# this file is released under public domain and you can use without limitations\n\n#########################################################################\n## This is a sample controller\n## - index is the default action of any application\n## - user is required for authentication and authorization\n## - download is for downloading files uploaded in the db (does streaming)\n## - call exposes all registered services (none by default)\n#########################################################################\n\n\ndef index():\n    """\n    example action using the internationalization operator T and flash\n    rendered by views/default/index.html or views/generic.html\n\n    if you need a simple wiki simply replace the two lines below with:\n    return auth.wiki()\n    """\n    # response.flash = T("Welcome to web2py!")\n    # return dict(message=T(\'Hello World\'))\n    grid = SQLFORM.grid(db(Sample_Annotation).select())\n    return grid\n\n\ndef user():\n    """\n    exposes:\n    http://..../[app]/default/user/login\n    http://..../[app]/default/user/logout\n    http://..../[app]/default/user/register\n    http://..../[app]/default/user/profile\n    http://..../[app]/default/user/retrieve_password\n    http://..../[app]/default/user/change_password\n    http://..../[app]/default/user/manage_users (requires membership in\n    use @auth.requires_login()\n        @auth.requires_membership(\'group name\')\n        @auth.requires_permission(\'read\',\'table name\',record_id)\n    to decorate functions that need access control\n    """\n    return dict(form=auth())\n\n@cache.action()\ndef download():\n    """\n    allows downloading of uploaded files\n    http://..../[app]/default/download/[filename]\n    """\n    return response.download(request, db)\n\n\ndef call():\n    """\n    exposes services. for example:\n    http://..../[app]/default/call/jsonrpc\n    decorate with @services.jsonrpc the functions to expose\n    supports xml, json, xmlrpc, jsonrpc, amfrpc, rss, csv\n    """\n    return service()\n\n\n@auth.requires_signature()\ndef data():\n    """\n    http://..../[app]/default/data/tables\n    http://..../[app]/default/data/create/[table]\n    http://..../[app]/default/data/read/[table]/[id]\n    http://..../[app]/default/data/update/[table]/[id]\n    http://..../[app]/default/data/delete/[table]/[id]\n    http://..../[app]/default/data/select/[table]\n    http://..../[app]/default/data/search/[table]\n    but URLs must be signed, i.e. linked with\n      A(\'table\',_href=URL(\'data/tables\',user_signature=True))\n    or with the signed load operator\n      LOAD(\'default\',\'data.load\',args=\'tables\',ajax=True,user_signature=True)\n    """\n    return dict(form=crud())\n\nresponse._vars=response._caller(index)\n'
p7
sS'snapshot'
p8
(dp9
S'exception'
p10
(dp11
S'__module__'
p12
S"'gluon.contrib.pg8000.errors'"
p13
sS'__getslice__'
p14
S"<method-wrapper '__getslice__' of ProgrammingError object>"
p15
sS'__str__'
p16
S"<method-wrapper '__str__' of ProgrammingError object>"
p17
sS'__reduce__'
p18
S'<built-in method __reduce__ of ProgrammingError object>'
p19
sS'__dict__'
p20
S'{}'
p21
sS'__sizeof__'
p22
S'<built-in method __sizeof__ of ProgrammingError object>'
p23
sS'__weakref__'
p24
S'None'
p25
sS'__init__'
p26
S"<method-wrapper '__init__' of ProgrammingError object>"
p27
sS'__setattr__'
p28
S"<method-wrapper '__setattr__' of ProgrammingError object>"
p29
sS'__reduce_ex__'
p30
S'<built-in method __reduce_ex__ of ProgrammingError object>'
p31
sS'__new__'
p32
S'<built-in method __new__ of type object>'
p33
sS'__format__'
p34
S'<built-in method __format__ of ProgrammingError object>'
p35
sS'__class__'
p36
S"<class 'gluon.contrib.pg8000.errors.ProgrammingError'>"
p37
sS'__doc__'
p38
S'None'
p39
sS'__getitem__'
p40
S"<method-wrapper '__getitem__' of ProgrammingError object>"
p41
sS'__setstate__'
p42
S'<built-in method __setstate__ of ProgrammingError object>'
p43
sS'__getattribute__'
p44
S"<method-wrapper '__getattribute__' of ProgrammingError object>"
p45
sS'args'
p46
S'(\'ERROR\', \'42P01\', \'relation "sample_annotation" does not exist\')'
p47
sS'__subclasshook__'
p48
S'<built-in method __subclasshook__ of type object>'
p49
sS'__unicode__'
p50
S'<built-in method __unicode__ of ProgrammingError object>'
p51
sS'__delattr__'
p52
S"<method-wrapper '__delattr__' of ProgrammingError object>"
p53
sS'__repr__'
p54
S"<method-wrapper '__repr__' of ProgrammingError object>"
p55
sS'__hash__'
p56
S"<method-wrapper '__hash__' of ProgrammingError object>"
p57
ssS'evalue'
p58
S'(\'ERROR\', \'42P01\', \'relation "sample_annotation" does not exist\')'
p59
sS'request'
p60
cgluon.html
XML_unpickle
p61
(S'stX\x00\x00<div><table><tr><td style="font-weight:bold;vertical-align:top;">ajax</td><td style="vertical-align:top;">:</td><td><div>False</div></td></tr><tr><td style="font-weight:bold;vertical-align:top;">application</td><td style="vertical-align:top;">:</td><td><div>init</div></td></tr><tr><td style="font-weight:bold;vertical-align:top;">args</td><td style="vertical-align:top;">:</td><td><div><table></table></div></td></tr><tr><td style="font-weight:bold;vertical-align:top;">cid</td><td style="vertical-align:top;">:</td><td><div>None</div></td></tr><tr><td style="font-weight:bold;vertical-align:top;">client</td><td style="vertical-align:top;">:</td><td><div>127.0.0.1</div></td></tr><tr><td style="font-weight:bold;vertical-align:top;">controller</td><td style="vertical-align:top;">:</td><td><div>default</div></td></tr><tr><td style="font-weight:bold;vertical-align:top;">cookies</td><td style="vertical-align:top;">:</td><td><div><table><tr><td style="font-weight:bold;vertical-align:top;">session_id_admin</td><td style="vertical-align:top;">:</td><td><div>127.0.0.1-3460afe1-d930-4a7e-8196-389f043f60c9<table><tr><td style="font-weight:bold;vertical-align:top;">comment</td><td style="vertical-align:top;">:</td><td><div></div></td></tr><tr><td style="font-weight:bold;vertical-align:top;">domain</td><td style="vertical-align:top;">:</td><td><div></div></td></tr><tr><td style="font-weight:bold;vertical-align:top;">expires</td><td style="vertical-align:top;">:</td><td><div></div></td></tr><tr><td style="font-weight:bold;vertical-align:top;">httponly</td><td style="vertical-align:top;">:</td><td><div></div></td></tr><tr><td style="font-weight:bold;vertical-align:top;">max-age</td><td style="vertical-align:top;">:</td><td><div></div></td></tr><tr><td style="font-weight:bold;vertical-align:top;">path</td><td style="vertical-align:top;">:</td><td><div></div></td></tr><tr><td style="font-weight:bold;vertical-align:top;">secure</td><td style="vertical-align:top;">:</td><td><div></div></td></tr><tr><td style="font-weight:bold;vertical-align:top;">version</td><td style="vertical-align:top;">:</td><td><div></div></td></tr></table></div></td></tr><tr><td style="font-weight:bold;vertical-align:top;">session_id_init</td><td style="vertical-align:top;">:</td><td><div>127.0.0.1-69d26404-69fe-4a85-85d0-884bd6272ae8<table><tr><td style="font-weight:bold;vertical-align:top;">comment</td><td style="vertical-align:top;">:</td><td><div></div></td></tr><tr><td style="font-weight:bold;vertical-align:top;">domain</td><td style="vertical-align:top;">:</td><td><div></div></td></tr><tr><td style="font-weight:bold;vertical-align:top;">expires</td><td style="vertical-align:top;">:</td><td><div></div></td></tr><tr><td style="font-weight:bold;vertical-align:top;">httponly</td><td style="vertical-align:top;">:</td><td><div></div></td></tr><tr><td style="font-weight:bold;vertical-align:top;">max-age</td><td style="vertical-align:top;">:</td><td><div></div></td></tr><tr><td style="font-weight:bold;vertical-align:top;">path</td><td style="vertical-align:top;">:</td><td><div></div></td></tr><tr><td style="font-weight:bold;vertical-align:top;">secure</td><td style="vertical-align:top;">:</td><td><div></div></td></tr><tr><td style="font-weight:bold;vertical-align:top;">version</td><td style="vertical-align:top;">:</td><td><div></div></td></tr></table></div></td></tr><tr><td style="font-weight:bold;vertical-align:top;">session_id_star</td><td style="vertical-align:top;">:</td><td><div>127.0.0.1-4fe8bfd0-8ce0-4bac-98a0-6f75c95c8d99<table><tr><td style="font-weight:bold;vertical-align:top;">comment</td><td style="vertical-align:top;">:</td><td><div></div></td></tr><tr><td style="font-weight:bold;vertical-align:top;">domain</td><td style="vertical-align:top;">:</td><td><div></div></td></tr><tr><td style="font-weight:bold;vertical-align:top;">expires</td><td style="vertical-align:top;">:</td><td><div></div></td></tr><tr><td style="font-weight:bold;vertical-align:top;">httponly</td><td style="vertical-align:top;">:</td><td><div></div></td></tr><tr><td style="font-weight:bold;vertical-align:top;">max-age</td><td style="vertical-align:top;">:</td><td><div></div></td></tr><tr><td style="font-weight:bold;vertical-align:top;">path</td><td style="vertical-align:top;">:</td><td><div></div></td></tr><tr><td style="font-weight:bold;vertical-align:top;">secure</td><td style="vertical-align:top;">:</td><td><div></div></td></tr><tr><td style="font-weight:bold;vertical-align:top;">version</td><td style="vertical-align:top;">:</td><td><div></div></td></tr></table></div></td></tr></table></div></td></tr><tr><td style="font-weight:bold;vertical-align:top;">env</td><td style="vertical-align:top;">:</td><td><div><table><tr><td style="font-weight:bold;vertical-align:top;">HTTP_ACCEPT</td><td style="vertical-align:top;">:</td><td><div>text/html,application/xhtml+xml,application/xml;q=0.9,*/*;q=0.8</div></td></tr><tr><td style="font-weight:bold;vertical-align:top;">HTTP_ACCEPT_ENCODING</td><td style="vertical-align:top;">:</td><td><div>gzip, deflate</div></td></tr><tr><td style="font-weight:bold;vertical-align:top;">HTTP_ACCEPT_LANGUAGE</td><td style="vertical-align:top;">:</td><td><div>en-us</div></td></tr><tr><td style="font-weight:bold;vertical-align:top;">HTTP_CONNECTION</td><td style="vertical-align:top;">:</td><td><div>keep-alive</div></td></tr><tr><td style="font-weight:bold;vertical-align:top;">HTTP_COOKIE</td><td style="vertical-align:top;">:</td><td><div>__utma=96992031.595755714.1403417871.1404752422.1405098346.6; __utmb=96992031.4.10.1405098346; __utmc=96992031; __utmz=96992031.1403417871.1.1.utmcsr=(direct)|utmccn=(direct)|utmcmd=(none); session_id_admin=127.0.0.1-3460afe1-d930-4a7e-8196-389f043f60c9; session_id_init=127.0.0.1-69d26404-69fe-4a85-85d0-884bd6272ae8; session_id_star=127.0.0.1-4fe8bfd0-8ce0-4bac-98a0-6f75c95c8d99</div></td></tr><tr><td style="font-weight:bold;vertical-align:top;">HTTP_HOST</td><td style="vertical-align:top;">:</td><td><div>127.0.0.1:8000</div></td></tr><tr><td style="font-weight:bold;vertical-align:top;">HTTP_USER_AGENT</td><td style="vertical-align:top;">:</td><td><div>Mozilla/5.0 (Macintosh; Intel Mac OS X 10_9_4) AppleWebKit/537.77.4 (KHTML, like Gecko) Version/7.0.5 Safari/537.77.4</div></td></tr><tr><td style="font-weight:bold;vertical-align:top;">PATH_INFO</td><td style="vertical-align:top;">:</td><td><div>/</div></td></tr><tr><td style="font-weight:bold;vertical-align:top;">QUERY_STRING</td><td style="vertical-align:top;">:</td><td><div></div></td></tr><tr><td style="font-weight:bold;vertical-align:top;">REMOTE_ADDR</td><td style="vertical-align:top;">:</td><td><div>127.0.0.1</div></td></tr><tr><td style="font-weight:bold;vertical-align:top;">REMOTE_PORT</td><td style="vertical-align:top;">:</td><td><div>51560</div></td></tr><tr><td style="font-weight:bold;vertical-align:top;">REQUEST_METHOD</td><td style="vertical-align:top;">:</td><td><div>GET</div></td></tr><tr><td style="font-weight:bold;vertical-align:top;">SCRIPT_NAME</td><td style="vertical-align:top;">:</td><td><div></div></td></tr><tr><td style="font-weight:bold;vertical-align:top;">SERVER_NAME</td><td style="vertical-align:top;">:</td><td><div>dex-mbp10_8</div></td></tr><tr><td style="font-weight:bold;vertical-align:top;">SERVER_PORT</td><td style="vertical-align:top;">:</td><td><div>8000</div></td></tr><tr><td style="font-weight:bold;vertical-align:top;">SERVER_PROTOCOL</td><td style="vertical-align:top;">:</td><td><div>HTTP/1.1</div></td></tr><tr><td style="font-weight:bold;vertical-align:top;">SERVER_SOFTWARE</td><td style="vertical-align:top;">:</td><td><div>Rocket 1.2.6</div></td></tr><tr><td style="font-weight:bold;vertical-align:top;">app_folders</td><td style="vertical-align:top;">:</td><td><div>set([&#x27;/Users/dex/Copy/web2py/applications/init/&#x27;, &#x27;/Users/dex/Copy/web2py/applications/admin/&#x27;])</div></td></tr><tr><td style="font-weight:bold;vertical-align:top;">applications_parent</td><td style="vertical-align:top;">:</td><td><div>/Users/dex/Copy/web2py</div></td></tr><tr><td style="font-weight:bold;vertical-align:top;">cmd_args</td><td style="vertical-align:top;">:</td><td><div><table></table></div></td></tr><tr><td style="font-weight:bold;vertical-align:top;">cmd_options</td><td style="vertical-align:top;">:</td><td><div>&lt;Values at 0x1041813f8: {&#x27;verbose&#x27;: False, &#x27;ip&#x27;: &#x27;127.0.0.1&#x27;, &#x27;debuglevel&#x27;: 30, &#x27;with_scheduler&#x27;: False, &#x27;ips&#x27;: [], &#x27;shutdown_timeout&#x27;: 5, &#x27;taskbar&#x27;: False, &#x27;with_coverage&#x27;: False, &#x27;port&#x27;: 8000, &#x27;maxthreads&#x27;: None, &#x27;softcron&#x27;: False, &#x27;server_name&#x27;: &#x27;dex-mbp10_8&#x27;, &#x27;bpython&#x27;: False, &#x27;nogui&#x27;: False, &#x27;pid_filename&#x27;: &#x27;httpserver.pid&#x27;, &#x27;extcron&#x27;: False, &#x27;runcron&#x27;: False, &#x27;run_system_tests&#x27;: False, &#x27;test&#x27;: None, &#x27;folder&#x27;: &#x27;/Users/dex/Copy/web2py&#x27;, &#x27;config&#x27;: &#x27;&#x27;, &#x27;minthreads&#x27;: None, &#x27;shell&#x27;: None, &#x27;run&#x27;: &#x27;&#x27;, &#x27;log_filename&#x27;: &#x27;httpserver.log&#x27;, &#x27;profiler_dir&#x27;: None, &#x27;args&#x27;: [&#x27;&#x27;], &#x27;socket_timeout&#x27;: 5, &#x27;ssl_ca_certificate&#x27;: None, &#x27;scheduler&#x27;: None, &#x27;interfaces&#x27;: None, &#x27;ssl_private_key&#x27;: &#x27;&#x27;, &#x27;scheduler_groups&#x27;: None, &#x27;password&#x27;: &#x27;&lt;ask&gt;&#x27;, &#x27;request_queue_size&#x27;: 5, &#x27;ssl_certificate&#x27;: &#x27;&#x27;, &#x27;cronjob&#x27;: False, &#x27;numthreads&#x27;: None, &#x27;quiet&#x27;: False, &#x27;import_models&#x27;: False, &#x27;timeout&#x27;: 10, &#x27;plain&#x27;: False, &#x27;nobanner&#x27;: False}&gt;</div></td></tr><tr><td style="font-weight:bold;vertical-align:top;">db_sessions</td><td style="vertical-align:top;">:</td><td><div>set([])</div></td></tr><tr><td style="font-weight:bold;vertical-align:top;">debugging</td><td style="vertical-align:top;">:</td><td><div>False</div></td></tr><tr><td style="font-weight:bold;vertical-align:top;">gluon_parent</td><td style="vertical-align:top;">:</td><td><div>/Users/dex/Copy/web2py</div></td></tr><tr><td style="font-weight:bold;vertical-align:top;">http_accept</td><td style="vertical-align:top;">:</td><td><div>text/html,application/xhtml+xml,application/xml;q=0.9,*/*;q=0.8</div></td></tr><tr><td style="font-weight:bold;vertical-align:top;">http_accept_encoding</td><td style="vertical-align:top;">:</td><td><div>gzip, deflate</div></td></tr><tr><td style="font-weight:bold;vertical-align:top;">http_accept_language</td><td style="vertical-align:top;">:</td><td><div>en-us</div></td></tr><tr><td style="font-weight:bold;vertical-align:top;">http_connection</td><td style="vertical-align:top;">:</td><td><div>keep-alive</div></td></tr><tr><td style="font-weight:bold;vertical-align:top;">http_cookie</td><td style="vertical-align:top;">:</td><td><div>__utma=96992031.595755714.1403417871.1404752422.1405098346.6; __utmb=96992031.4.10.1405098346; __utmc=96992031; __utmz=96992031.1403417871.1.1.utmcsr=(direct)|utmccn=(direct)|utmcmd=(none); session_id_admin=127.0.0.1-3460afe1-d930-4a7e-8196-389f043f60c9; session_id_init=127.0.0.1-69d26404-69fe-4a85-85d0-884bd6272ae8; session_id_star=127.0.0.1-4fe8bfd0-8ce0-4bac-98a0-6f75c95c8d99</div></td></tr><tr><td style="font-weight:bold;vertical-align:top;">http_host</td><td style="vertical-align:top;">:</td><td><div>127.0.0.1:8000</div></td></tr><tr><td style="font-weight:bold;vertical-align:top;">http_user_agent</td><td style="vertical-align:top;">:</td><td><div>Mozilla/5.0 (Macintosh; Intel Mac OS X 10_9_4) AppleWebKit/537.77.4 (KHTML, like Gecko) Version/7.0.5 Safari/537.77.4</div></td></tr><tr><td style="font-weight:bold;vertical-align:top;">is_jython</td><td style="vertical-align:top;">:</td><td><div>False</div></td></tr><tr><td style="font-weight:bold;vertical-align:top;">is_pypy</td><td style="vertical-align:top;">:</td><td><div>False</div></td></tr><tr><td style="font-weight:bold;vertical-align:top;">is_source</td><td style="vertical-align:top;">:</td><td><div>True</div></td></tr><tr><td style="font-weight:bold;vertical-align:top;">local_hosts</td><td style="vertical-align:top;">:</td><td><div><table><tr><td><div>dex-mbp10_8</div></td></tr><tr><td><div>::1</div></td></tr><tr><td><div>::ffff:127.0.0.1</div></td></tr><tr><td><div>127.0.0.1</div></td></tr></table></div></td></tr><tr><td style="font-weight:bold;vertical-align:top;">path_info</td><td style="vertical-align:top;">:</td><td><div>/</div></td></tr><tr><td style="font-weight:bold;vertical-align:top;">query_string</td><td style="vertical-align:top;">:</td><td><div></div></td></tr><tr><td style="font-weight:bold;vertical-align:top;">remote_addr</td><td style="vertical-align:top;">:</td><td><div>127.0.0.1</div></td></tr><tr><td style="font-weight:bold;vertical-align:top;">remote_port</td><td style="vertical-align:top;">:</td><td><div>51560</div></td></tr><tr><td style="font-weight:bold;vertical-align:top;">request_method</td><td style="vertical-align:top;">:</td><td><div>GET</div></td></tr><tr><td style="font-weight:bold;vertical-align:top;">request_uri</td><td style="vertical-align:top;">:</td><td><div>/</div></td></tr><tr><td style="font-weight:bold;vertical-align:top;">script_name</td><td style="vertical-align:top;">:</td><td><div></div></td></tr><tr><td style="font-weight:bold;vertical-align:top;">server_name</td><td style="vertical-align:top;">:</td><td><div>dex-mbp10_8</div></td></tr><tr><td style="font-weight:bold;vertical-align:top;">server_port</td><td style="vertical-align:top;">:</td><td><div>8000</div></td></tr><tr><td style="font-weight:bold;vertical-align:top;">server_protocol</td><td style="vertical-align:top;">:</td><td><div>HTTP/1.1</div></td></tr><tr><td style="font-weight:bold;vertical-align:top;">server_software</td><td style="vertical-align:top;">:</td><td><div>Rocket 1.2.6</div></td></tr><tr><td style="font-weight:bold;vertical-align:top;">web2py_path</td><td style="vertical-align:top;">:</td><td><div>/Users/dex/Copy/web2py</div></td></tr><tr><td style="font-weight:bold;vertical-align:top;">web2py_version</td><td style="vertical-align:top;">:</td><td><div>2.9.5-stable+timestamp.2014.03.16.02.35.39</div></td></tr><tr><td style="font-weight:bold;vertical-align:top;">wsgi.errors</td><td style="vertical-align:top;">:</td><td><div>&lt;open file &#x27;&lt;stderr&gt;&#x27;, mode &#x27;w&#x27; at 0x1002951e0&gt;</div></td></tr><tr><td style="font-weight:bold;vertical-align:top;">wsgi.file_wrapper</td><td style="vertical-align:top;">:</td><td><div>&lt;class wsgiref.util.FileWrapper at 0x103e5c1f0&gt;</div></td></tr><tr><td style="font-weight:bold;vertical-align:top;">wsgi.input</td><td style="vertical-align:top;">:</td><td><div>&lt;socket._fileobject object at 0x10cf5d7d0&gt;</div></td></tr><tr><td style="font-weight:bold;vertical-align:top;">wsgi.multiprocess</td><td style="vertical-align:top;">:</td><td><div>False</div></td></tr><tr><td style="font-weight:bold;vertical-align:top;">wsgi.multithread</td><td style="vertical-align:top;">:</td><td><div>True</div></td></tr><tr><td style="font-weight:bold;vertical-align:top;">wsgi.run_once</td><td style="vertical-align:top;">:</td><td><div>False</div></td></tr><tr><td style="font-weight:bold;vertical-align:top;">wsgi.url_scheme</td><td style="vertical-align:top;">:</td><td><div>http</div></td></tr><tr><td style="font-weight:bold;vertical-align:top;">wsgi.version</td><td style="vertical-align:top;">:</td><td><div><table><tr><td><div>1</div></td></tr><tr><td><div>0</div></td></tr></table></div></td></tr><tr><td style="font-weight:bold;vertical-align:top;">wsgi_errors</td><td style="vertical-align:top;">:</td><td><div>&lt;open file &#x27;&lt;stderr&gt;&#x27;, mode &#x27;w&#x27; at 0x1002951e0&gt;</div></td></tr><tr><td style="font-weight:bold;vertical-align:top;">wsgi_file_wrapper</td><td style="vertical-align:top;">:</td><td><div>&lt;class wsgiref.util.FileWrapper at 0x103e5c1f0&gt;</div></td></tr><tr><td style="font-weight:bold;vertical-align:top;">wsgi_input</td><td style="vertical-align:top;">:</td><td><div>&lt;socket._fileobject object at 0x10cf5d7d0&gt;</div></td></tr><tr><td style="font-weight:bold;vertical-align:top;">wsgi_multiprocess</td><td style="vertical-align:top;">:</td><td><div>False</div></td></tr><tr><td style="font-weight:bold;vertical-align:top;">wsgi_multithread</td><td style="vertical-align:top;">:</td><td><div>True</div></td></tr><tr><td style="font-weight:bold;vertical-align:top;">wsgi_run_once</td><td style="vertical-align:top;">:</td><td><div>False</div></td></tr><tr><td style="font-weight:bold;vertical-align:top;">wsgi_url_scheme</td><td style="vertical-align:top;">:</td><td><div>http</div></td></tr><tr><td style="font-weight:bold;vertical-align:top;">wsgi_version</td><td style="vertical-align:top;">:</td><td><div><table><tr><td><div>1</div></td></tr><tr><td><div>0</div></td></tr></table></div></td></tr></table></div></td></tr><tr><td style="font-weight:bold;vertical-align:top;">extension</td><td style="vertical-align:top;">:</td><td><div>html</div></td></tr><tr><td style="font-weight:bold;vertical-align:top;">folder</td><td style="vertical-align:top;">:</td><td><div>/Users/dex/Copy/web2py/applications/init/</div></td></tr><tr><td style="font-weight:bold;vertical-align:top;">function</td><td style="vertical-align:top;">:</td><td><div>index</div></td></tr><tr><td style="font-weight:bold;vertical-align:top;">global_settings</td><td style="vertical-align:top;">:</td><td><div><table><tr><td style="font-weight:bold;vertical-align:top;">app_folders</td><td style="vertical-align:top;">:</td><td><div>set([&#x27;/Users/dex/Copy/web2py/applications/init/&#x27;, &#x27;/Users/dex/Copy/web2py/applications/admin/&#x27;])</div></td></tr><tr><td style="font-weight:bold;vertical-align:top;">applications_parent</td><td style="vertical-align:top;">:</td><td><div>/Users/dex/Copy/web2py</div></td></tr><tr><td style="font-weight:bold;vertical-align:top;">cmd_args</td><td style="vertical-align:top;">:</td><td><div><table></table></div></td></tr><tr><td style="font-weight:bold;vertical-align:top;">cmd_options</td><td style="vertical-align:top;">:</td><td><div>&lt;Values at 0x1041813f8: {&#x27;verbose&#x27;: False, &#x27;ip&#x27;: &#x27;127.0.0.1&#x27;, &#x27;debuglevel&#x27;: 30, &#x27;with_scheduler&#x27;: False, &#x27;ips&#x27;: [], &#x27;shutdown_timeout&#x27;: 5, &#x27;taskbar&#x27;: False, &#x27;with_coverage&#x27;: False, &#x27;port&#x27;: 8000, &#x27;maxthreads&#x27;: None, &#x27;softcron&#x27;: False, &#x27;server_name&#x27;: &#x27;dex-mbp10_8&#x27;, &#x27;bpython&#x27;: False, &#x27;nogui&#x27;: False, &#x27;pid_filename&#x27;: &#x27;httpserver.pid&#x27;, &#x27;extcron&#x27;: False, &#x27;runcron&#x27;: False, &#x27;run_system_tests&#x27;: False, &#x27;test&#x27;: None, &#x27;folder&#x27;: &#x27;/Users/dex/Copy/web2py&#x27;, &#x27;config&#x27;: &#x27;&#x27;, &#x27;minthreads&#x27;: None, &#x27;shell&#x27;: None, &#x27;run&#x27;: &#x27;&#x27;, &#x27;log_filename&#x27;: &#x27;httpserver.log&#x27;, &#x27;profiler_dir&#x27;: None, &#x27;args&#x27;: [&#x27;&#x27;], &#x27;socket_timeout&#x27;: 5, &#x27;ssl_ca_certificate&#x27;: None, &#x27;scheduler&#x27;: None, &#x27;interfaces&#x27;: None, &#x27;ssl_private_key&#x27;: &#x27;&#x27;, &#x27;scheduler_groups&#x27;: None, &#x27;password&#x27;: &#x27;&lt;ask&gt;&#x27;, &#x27;request_queue_size&#x27;: 5, &#x27;ssl_certificate&#x27;: &#x27;&#x27;, &#x27;cronjob&#x27;: False, &#x27;numthreads&#x27;: None, &#x27;quiet&#x27;: False, &#x27;import_models&#x27;: False, &#x27;timeout&#x27;: 10, &#x27;plain&#x27;: False, &#x27;nobanner&#x27;: False}&gt;</div></td></tr><tr><td style="font-weight:bold;vertical-align:top;">db_sessions</td><td style="vertical-align:top;">:</td><td><div>set([])</div></td></tr><tr><td style="font-weight:bold;vertical-align:top;">debugging</td><td style="vertical-align:top;">:</td><td><div>False</div></td></tr><tr><td style="font-weight:bold;vertical-align:top;">gluon_parent</td><td style="vertical-align:top;">:</td><td><div>/Users/dex/Copy/web2py</div></td></tr><tr><td style="font-weight:bold;vertical-align:top;">is_jython</td><td style="vertical-align:top;">:</td><td><div>False</div></td></tr><tr><td style="font-weight:bold;vertical-align:top;">is_pypy</td><td style="vertical-align:top;">:</td><td><div>False</div></td></tr><tr><td style="font-weight:bold;vertical-align:top;">is_source</td><td style="vertical-align:top;">:</td><td><div>True</div></td></tr><tr><td style="font-weight:bold;vertical-align:top;">local_hosts</td><td style="vertical-align:top;">:</td><td><div><table><tr><td><div>dex-mbp10_8</div></td></tr><tr><td><div>::1</div></td></tr><tr><td><div>::ffff:127.0.0.1</div></td></tr><tr><td><div>127.0.0.1</div></td></tr></table></div></td></tr><tr><td style="font-weight:bold;vertical-align:top;">web2py_version</td><td style="vertical-align:top;">:</td><td><div>2.9.5-stable+timestamp.2014.03.16.02.35.39</div></td></tr></table></div></td></tr><tr><td style="font-weight:bold;vertical-align:top;">is_https</td><td style="vertical-align:top;">:</td><td><div>False</div></td></tr><tr><td style="font-weight:bold;vertical-align:top;">is_local</td><td style="vertical-align:top;">:</td><td><div>True</div></td></tr><tr><td style="font-weight:bold;vertical-align:top;">is_restful</td><td style="vertical-align:top;">:</td><td><div>False</div></td></tr><tr><td style="font-weight:bold;vertical-align:top;">now</td><td style="vertical-align:top;">:</td><td><div>datetime.datetime(2014, 7, 11, 10, 25, 39, 274498)</div></td></tr><tr><td style="font-weight:bold;vertical-align:top;">raw_args</td><td style="vertical-align:top;">:</td><td><div></div></td></tr><tr><td style="font-weight:bold;vertical-align:top;">raw_extension</td><td style="vertical-align:top;">:</td><td><div>None</div></td></tr><tr><td style="font-weight:bold;vertical-align:top;">url</td><td style="vertical-align:top;">:</td><td><div>/</div></td></tr><tr><td style="font-weight:bold;vertical-align:top;">utcnow</td><td style="vertical-align:top;">:</td><td><div>datetime.datetime(2014, 7, 11, 17, 25, 39, 274514)</div></td></tr><tr><td style="font-weight:bold;vertical-align:top;">uuid</td><td style="vertical-align:top;">:</td><td><div>init/127.0.0.1.2014-07-11.10-25-39.818bc4aa-7d91-4ffd-ab50-673f28eb9444</div></td></tr><tr><td style="font-weight:bold;vertical-align:top;">wsgi</td><td style="vertical-align:top;">:</td><td><div>&lt;gluon.main.LazyWSGI object at 0x10cf58b90&gt;</div></td></tr></table></div>'
tRp62
sS'frames'
p63
(lp64
(dp65
S'file'
p66
S'/Users/dex/Copy/web2py/gluon/restricted.py'
p67
sS'dump'
p68
(dp69
S'environment'
p70
S"{'A': <class 'gluon.html.A'>, 'ANY_OF': <class 'gluon.validators.ANY_OF'>, 'Annotation': <Table annotation (id,name,description,is_active,created_on,created_by,modified_on,modified_by)>, 'Auth': <class 'gluon.tools.Auth'>, 'B': <class 'gluon.html.B'>, 'BEAUTIFY': <class 'gluon.html.BEAUTIFY'>, 'BODY': <class 'gluon.html.BODY'>, 'BR': <class 'gluon.html.BR'>, 'BUTTON': <class 'gluon.html.BUTTON'>, 'CAT': <class 'gluon.html.CAT'>, ...}"
p71
sS'ccode'
p72
S'<code object <module> at 0x10cf5de30, file "/Use...plications/init/controllers/default.py", line 13>'
p73
ssS'lnum'
p74
I220
sS'lines'
p75
(dp76
I224
S'        # do not encapsulate (obfuscate) the original RestrictedError'
p77
sI215
S'    try:'
p78
sI216
S'        if isinstance(code, types.CodeType):'
p79
sI217
S'            ccode = code'
p80
sI218
S'        else:'
p81
sI219
S'            ccode = compile2(code, layer)'
p82
sI220
S'        exec ccode in environment'
p83
sI221
S'    except HTTP:'
p84
sI222
S'        raise'
p85
sI223
S'    except RestrictedError:'
p86
ssS'call'
p87
S"(code='# -*- coding: utf-8 -*-\\n# this file is released ...=crud())\\n\\nresponse._vars=response._caller(index)\\n', environment={'A': <class 'gluon.html.A'>, 'ANY_OF': <class 'gluon.validators.ANY_OF'>, 'Annotation': <Table annotation (id,name,description,is_active,created_on,created_by,modified_on,modified_by)>, 'Auth': <class 'gluon.tools.Auth'>, 'B': <class 'gluon.html.B'>, 'BEAUTIFY': <class 'gluon.html.BEAUTIFY'>, 'BODY': <class 'gluon.html.BODY'>, 'BR': <class 'gluon.html.BR'>, 'BUTTON': <class 'gluon.html.BUTTON'>, 'CAT': <class 'gluon.html.CAT'>, ...}, layer='/Users/dex/Copy/web2py/applications/init/controllers/default.py')"
p88
sS'func'
p89
S'restricted'
p90
sa(dp91
g66
S'/Users/dex/Copy/web2py/applications/init/controllers/default.py'
p92
sg68
(dp93
sg74
I80
sg75
(dp94
I69
S'    http://..../[app]/default/data/update/[table]/[id]'
p95
sI70
S'    http://..../[app]/default/data/delete/[table]/[id]'
p96
sI71
S'    http://..../[app]/default/data/select/[table]'
p97
sI72
S'    http://..../[app]/default/data/search/[table]'
p98
sI73
S'    but URLs must be signed, i.e. linked with'
p99
sI74
S"      A('table',_href=URL('data/tables',user_signature=True))"
p100
sI75
S'    or with the signed load operator'
p101
sI76
S"      LOAD('default','data.load',args='tables',ajax=True,user_signature=True)"
p102
sI77
S'    """'
p103
sI78
S'    return dict(form=crud())'
p104
ssg87
S'()'
p105
sg89
S'<module>'
p106
sa(dp107
g66
S'/Users/dex/Copy/web2py/gluon/globals.py'
p108
sg68
(dp109
S'self'
p110
S'undefined'
p111
sS'f'
S'<function index>'
p112
ssg74
I385
sg75
(dp113
I384
S'        self._vars = None'
p114
sI385
S'        self._caller = lambda f: f()'
p115
sI386
S'        self._view_environment = None'
p116
sI387
S'        self._custom_commit = None'
p117
sI388
S'        self._custom_rollback = None'
p118
sI389
S''
sI380
S'        self.menu = []             # used by the default view layout'
p119
sI381
S'        self.files = []            # used by web2py_ajax.html'
p120
sI382
S'        self.generic_patterns = []  # patterns to allow generic views'
p121
sI383
S"        self.delimiters = ('{{', '}}')"
p122
ssg87
S'(f=<function index>)'
p123
sg89
S'<lambda>'
p124
sa(dp125
g66
S'/Users/dex/Copy/web2py/applications/init/controllers/default.py'
p126
sg68
(dp127
S'global Sample_Annotation'
p128
S'<Table sample_annotation (id,series_annotation_i...e,created_on,created_by,modified_on,modified_by)>'
p129
sS'SQLFORM.grid'
p130
S'<function grid>'
p131
sS'global SQLFORM'
p132
S"<class 'gluon.sqlhtml.SQLFORM'>"
p133
sS').select'
p134
g111
sS'grid'
p135
g111
sS'global db'
p136
S'<DAL uri="postgres:******@localhost/star">'
p137
ssg74
I23
sg75
(dp138
I18
S'    if you need a simple wiki simply replace the two lines below with:'
p139
sI19
S'    return auth.wiki()'
p140
sI20
S'    """'
p141
sI21
S'    # response.flash = T("Welcome to web2py!")'
p142
sI22
S"    # return dict(message=T('Hello World'))"
p143
sI23
S'    grid = SQLFORM.grid(db(Sample_Annotation).select())'
p144
sI24
S'    return grid'
p145
sI25
S''
sI26
S''
sI27
S'def user():'
p146
ssg87
S'()'
p147
sg89
S'index'
p148
sa(dp149
g66
S'/Users/dex/Copy/web2py/gluon/dal.py'
p150
sg68
(dp151
S'self.query'
p152
S'<Query (sample_annotation.id IS NOT NULL)>'
p153
sS'adapter.select'
p154
S'<bound method PostgreSQLAdapter.select of <gluon.dal.PostgreSQLAdapter object>>'
p155
sS'fields'
p156
S'[<gluon.dal.Field object>, <gluon.dal.Field object>, <gluon.dal.Field object>, <gluon.dal.Field object>, <gluon.dal.Field object>, <gluon.dal.Field object>, <gluon.dal.Field object>, <gluon.dal.Field object>, <gluon.dal.Field object>, <gluon.dal.Field object>]'
p157
sS'adapter'
p158
S'<gluon.dal.PostgreSQLAdapter object>'
p159
sS'attributes'
p160
g21
sS'self'
p161
S'<Set (sample_annotation.id IS NOT NULL)>'
p162
ssg74
I10525
sg75
(dp163
I10528
S'        return Expression(self.db,self._select(*fields,**attributes))'
p164
sI10529
S''
sI10520
S"                                    attributes.get('join',None),"
p165
sI10521
S"                                    attributes.get('left',None),"
p166
sI10522
S"                                    attributes.get('orderby',None),"
p167
sI10523
S"                                    attributes.get('groupby',None))"
p168
sI10524
S'        fields = adapter.expand_all(fields, tablenames)'
p169
sI10525
S'        return adapter.select(self.query,fields,attributes)'
p170
sI10526
S''
sI10527
S'    def nested_select(self,*fields,**attributes):'
p171
ssg87
S'(self=<Set (sample_annotation.id IS NOT NULL)>, *fields=[<gluon.dal.Field object>, <gluon.dal.Field object>, <gluon.dal.Field object>, <gluon.dal.Field object>, <gluon.dal.Field object>, <gluon.dal.Field object>, <gluon.dal.Field object>, <gluon.dal.Field object>, <gluon.dal.Field object>, <gluon.dal.Field object>], **attributes={})'
p172
sg89
S'select'
p173
sa(dp174
g66
S'/Users/dex/Copy/web2py/gluon/dal.py'
p175
sg68
(dp176
S'fields'
p177
S'[<gluon.dal.Field object>, <gluon.dal.Field object>, <gluon.dal.Field object>, <gluon.dal.Field object>, <gluon.dal.Field object>, <gluon.dal.Field object>, <gluon.dal.Field object>, <gluon.dal.Field object>, <gluon.dal.Field object>, <gluon.dal.Field object>]'
p178
sS'self'
p179
S'<gluon.dal.PostgreSQLAdapter object>'
p180
sS'attributes'
p181
g21
sS'self._select_aux'
p182
S'<bound method PostgreSQLAdapter._select_aux of <gluon.dal.PostgreSQLAdapter object>>'
p183
sS'sql'
p184
S"'SELECT  sample_annotation.id, sample_annotation....otation WHERE (sample_annotation.id IS NOT NULL);'"
p185
ssg74
I1882
sg75
(dp186
I1877
S'            return cache_model('
p187
sI1878
S'                key,'
p188
sI1879
S'                lambda self=self,args=args:self._select_aux(*args),'
p189
sI1880
S'                time_expire)'
p190
sI1881
S'        else:'
p191
sI1882
S'            return self._select_aux(sql,fields,attributes)'
p192
sI1883
S''
sI1884
S'    def _count(self, query, distinct=None):'
p193
sI1885
S'        tablenames = self.tables(query)'
p194
sI1886
S'        if query:'
p195
ssg87
S'(self=<gluon.dal.PostgreSQLAdapter object>, query=<Query (sample_annotation.id IS NOT NULL)>, fields=[<gluon.dal.Field object>, <gluon.dal.Field object>, <gluon.dal.Field object>, <gluon.dal.Field object>, <gluon.dal.Field object>, <gluon.dal.Field object>, <gluon.dal.Field object>, <gluon.dal.Field object>, <gluon.dal.Field object>, <gluon.dal.Field object>], attributes={})'
p196
sg89
g173
sa(dp197
g66
S'/Users/dex/Copy/web2py/gluon/dal.py'
p198
sg68
(dp199
S'self'
p200
S'<gluon.dal.PostgreSQLAdapter object>'
p201
sS'self.execute'
p202
S'<bound method PostgreSQLAdapter.execute of <gluon.dal.PostgreSQLAdapter object>>'
p203
sS'sql'
p204
S"'SELECT  sample_annotation.id, sample_annotation....otation WHERE (sample_annotation.id IS NOT NULL);'"
p205
ssg74
I1847
sg75
(dp206
I1842
S''
sI1843
S'    def _select_aux(self,sql,fields,attributes):'
p207
sI1844
S'        args_get = attributes.get'
p208
sI1845
S"        cache = args_get('cache',None)"
p209
sI1846
S'        if not cache:'
p210
sI1847
S'            self.execute(sql)'
p211
sI1848
S'            rows = self._fetchall()'
p212
sI1849
S'        else:'
p213
sI1850
S'            (cache_model, time_expire) = cache'
p214
sI1851
S"            key = self.uri + '/' + sql + '/rows'"
p215
ssg87
S"(self=<gluon.dal.PostgreSQLAdapter object>, sql='SELECT  sample_annotation.id, sample_annotation....otation WHERE (sample_annotation.id IS NOT NULL);', fields=[<gluon.dal.Field object>, <gluon.dal.Field object>, <gluon.dal.Field object>, <gluon.dal.Field object>, <gluon.dal.Field object>, <gluon.dal.Field object>, <gluon.dal.Field object>, <gluon.dal.Field object>, <gluon.dal.Field object>, <gluon.dal.Field object>], attributes={})"
p216
sg89
S'_select_aux'
p217
sa(dp218
g66
S'/Users/dex/Copy/web2py/gluon/dal.py'
p219
sg68
(dp220
S'a'
S"('SELECT  sample_annotation.id, sample_annotation....otation WHERE (sample_annotation.id IS NOT NULL);',)"
p221
sS'self'
p222
S'<gluon.dal.PostgreSQLAdapter object>'
p223
sS'b'
g21
sS'self.log_execute'
p224
S'<bound method PostgreSQLAdapter.log_execute of <gluon.dal.PostgreSQLAdapter object>>'
p225
ssg74
I1969
sg75
(dp226
I1964
S'        self.db._timings.append((command,time.time()-t0))'
p227
sI1965
S'        del self.db._timings[:-TIMINGSSIZE]'
p228
sI1966
S'        return ret'
p229
sI1967
S''
sI1968
S'    def execute(self, *a, **b):'
p230
sI1969
S'        return self.log_execute(*a, **b)'
p231
sI1970
S''
sI1971
S'    def represent(self, obj, fieldtype):'
p232
sI1972
S'        field_is_type = fieldtype.startswith'
p233
sI1973
S'        if isinstance(obj, CALLABLETYPES):'
p234
ssg87
S"(self=<gluon.dal.PostgreSQLAdapter object>, *a=('SELECT  sample_annotation.id, sample_annotation....otation WHERE (sample_annotation.id IS NOT NULL);',), **b={})"
p235
sg89
S'execute'
p236
sa(dp237
g66
S'/Users/dex/Copy/web2py/gluon/dal.py'
p238
sg68
(dp239
S'a'
S"('SELECT  sample_annotation.id, sample_annotation....otation WHERE (sample_annotation.id IS NOT NULL);',)"
p240
sS'b'
g21
sS'self'
p241
S'<gluon.dal.PostgreSQLAdapter object>'
p242
sS'ret'
p243
g111
sS'self.cursor'
p244
S'<gluon.contrib.pg8000.dbapi.CursorWrapper object>'
p245
sS'command'
p246
S"'SELECT  sample_annotation.id, sample_annotation....otation WHERE (sample_annotation.id IS NOT NULL);'"
p247
sS'self.cursor.execute'
p248
S'<bound method CursorWrapper._fn of <gluon.contrib.pg8000.dbapi.CursorWrapper object>>'
p249
ssg74
I1963
sg75
(dp250
I1958
S'            command = self.filter_sql_command(command)'
p251
sI1959
S'        if self.db._debug:'
p252
sI1960
S"            LOGGER.debug('SQL: %s' % command)"
p253
sI1961
S'        self.db._lastsql = command'
p254
sI1962
S'        t0 = time.time()'
p255
sI1963
S'        ret = self.cursor.execute(command, *a[1:], **b)'
p256
sI1964
S'        self.db._timings.append((command,time.time()-t0))'
p257
sI1965
S'        del self.db._timings[:-TIMINGSSIZE]'
p258
sI1966
S'        return ret'
p259
sI1967
S''
ssg87
S"(self=<gluon.dal.PostgreSQLAdapter object>, *a=('SELECT  sample_annotation.id, sample_annotation....otation WHERE (sample_annotation.id IS NOT NULL);',), **b={})"
p260
sg89
S'log_execute'
p261
sa(dp262
g66
S'/Users/dex/Copy/web2py/gluon/contrib/pg8000/dbapi.py'
p263
sg68
(dp264
S'self'
p265
S'<gluon.contrib.pg8000.dbapi.CursorWrapper object>'
p266
sS'args'
p267
S"('SELECT  sample_annotation.id, sample_annotation....otation WHERE (sample_annotation.id IS NOT NULL);',)"
p268
sS'fn'
p269
S'<function execute>'
p270
sS'kwargs'
p271
g21
ssg74
I246
sg75
(dp272
I241
S''
sI242
S'def require_open_cursor(fn):'
p273
sI243
S'    def _fn(self, *args, **kwargs):'
p274
sI244
S'        if self.cursor == None:'
p275
sI245
S'            raise CursorClosedError()'
p276
sI246
S'        return fn(self, *args, **kwargs)'
p277
sI247
S'    return _fn'
p278
sI248
S''
sI249
S'##'
p279
sI250
S'# The class of object returned by the {@link #ConnectionWrapper.cursor cursor method}.'
p280
ssg87
S"(self=<gluon.contrib.pg8000.dbapi.CursorWrapper object>, *args=('SELECT  sample_annotation.id, sample_annotation....otation WHERE (sample_annotation.id IS NOT NULL);',), **kwargs={})"
p281
sg89
S'_fn'
p282
sa(dp283
g66
S'/Users/dex/Copy/web2py/gluon/contrib/pg8000/dbapi.py'
p284
sg68
(dp285
S'self._execute'
p286
S'<bound method CursorWrapper._execute of <gluon.contrib.pg8000.dbapi.CursorWrapper object>>'
p287
sS'self'
p288
S'<gluon.contrib.pg8000.dbapi.CursorWrapper object>'
p289
sS'args'
p290
S'()'
p291
sS'operation'
p292
S"'SELECT  sample_annotation.id, sample_annotation....otation WHERE (sample_annotation.id IS NOT NULL);'"
p293
ssg74
I317
sg75
(dp294
I320
S'        new_query, new_args = convert_paramstyle(paramstyle, operation, args)'
p295
sI321
S'        try:'
p296
sI312
S'    @require_open_cursor'
p297
sI313
S'    def execute(self, operation, args=()):'
p298
sI314
S'        if not self._connection.in_transaction:'
p299
sI315
S'            self._connection.begin()'
p300
sI316
S'        self._override_rowcount = None'
p301
sI317
S'        self._execute(operation, args)'
p302
sI318
S''
sI319
S'    def _execute(self, operation, args=()):'
p303
ssg87
S"(self=<gluon.contrib.pg8000.dbapi.CursorWrapper object>, operation='SELECT  sample_annotation.id, sample_annotation....otation WHERE (sample_annotation.id IS NOT NULL);', args=())"
p304
sg89
g236
sa(dp305
g66
S'/Users/dex/Copy/web2py/gluon/contrib/pg8000/dbapi.py'
p306
sg68
(dp307
S'new_args'
p308
S'()'
p309
sS'self.cursor'
p310
S'<gluon.contrib.pg8000.interface.Cursor object>'
p311
sS'self'
p312
S'<gluon.contrib.pg8000.dbapi.CursorWrapper object>'
p313
sS'new_query'
p314
S"'SELECT  sample_annotation.id, sample_annotation....otation WHERE (sample_annotation.id IS NOT NULL);'"
p315
sS'self.cursor.execute'
p316
S'<bound method Cursor.execute of <gluon.contrib.pg8000.interface.Cursor object>>'
p317
ssg74
I322
sg75
(dp318
I320
S'        new_query, new_args = convert_paramstyle(paramstyle, operation, args)'
p319
sI321
S'        try:'
p320
sI322
S'            self.cursor.execute(new_query, *new_args)'
p321
sI323
S'        except ConnectionClosedError:'
p322
sI324
S"            # can't rollback in this case"
p323
sI325
S'            raise'
p324
sI326
S'        except:'
p325
sI317
S'        self._execute(operation, args)'
p326
sI318
S''
sI319
S'    def _execute(self, operation, args=()):'
p327
ssg87
S"(self=<gluon.contrib.pg8000.dbapi.CursorWrapper object>, operation='SELECT  sample_annotation.id, sample_annotation....otation WHERE (sample_annotation.id IS NOT NULL);', args=())"
p328
sg89
S'_execute'
p329
sa(dp330
g66
S'/Users/dex/Copy/web2py/gluon/contrib/pg8000/interface.py'
p331
sg68
(dp332
S'x'
g111
sS'args'
p333
S'()'
p334
sS'builtintype'
p335
S"<type 'type'>"
p336
sS'self._stmt'
p337
S'<gluon.contrib.pg8000.interface.PreparedStatement object>'
p338
sS'self'
p339
S'<gluon.contrib.pg8000.interface.Cursor object>'
p340
sS'self.connection'
p341
S'<gluon.contrib.pg8000.interface.Connection object>'
p342
sS'global PreparedStatement'
p343
S"<class 'gluon.contrib.pg8000.interface.PreparedStatement'>"
p344
sS'statement_name'
p345
g111
sS'query'
p346
S"'SELECT  sample_annotation.id, sample_annotation....otation WHERE (sample_annotation.id IS NOT NULL);'"
p347
ssg74
I398
sg75
(dp348
I393
S'                # use PostgreSQL Simple Query Protocol'
p349
sI394
S'                ## print "SimpleQuery:", query'
p350
sI395
S'                self._stmt = SimpleStatement(self.connection, query)'
p351
sI396
S'            else:'
p352
sI397
S'                # use PostgreSQL Extended Query Protocol'
p353
sI398
S'                self._stmt = PreparedStatement(self.connection, query, statement_name="", *[{"type": type(x), "value": x} for x in args])'
p354
sI399
S'            self._stmt.execute(*args, **kwargs)'
p355
sI400
S'        finally:'
p356
sI401
S'            self.connection._unnamed_prepared_statement_lock.release()'
p357
sI402
S''
ssg87
S"(self=<gluon.contrib.pg8000.interface.Cursor object>, query='SELECT  sample_annotation.id, sample_annotation....otation WHERE (sample_annotation.id IS NOT NULL);', *args=(), **kwargs={})"
p358
sg89
g236
sa(dp359
g66
S'/Users/dex/Copy/web2py/gluon/contrib/pg8000/interface.py'
p360
sg68
(dp361
S'self.c'
p362
S'<gluon.contrib.pg8000.protocol.Connection object>'
p363
sS'self'
p364
S'<gluon.contrib.pg8000.interface.PreparedStatement object>'
p365
sS'self.c.parse'
p366
S'<bound method Connection._fn of <gluon.contrib.pg8000.protocol.Connection object>>'
p367
sS'self._statement_name'
p368
S"''"
p369
sS'self._parse_row_desc'
p370
g111
sS'statement'
p371
S"'SELECT  sample_annotation.id, sample_annotation....otation WHERE (sample_annotation.id IS NOT NULL);'"
p372
sS'types'
p373
S'()'
p374
ssg74
I138
sg75
(dp375
I133
S'        self._statement_name = kwargs.get("statement_name", "pg8000_statement_%s" % self._statement_number)'
p376
sI134
S'        self._row_desc = None'
p377
sI135
S'        self._cached_rows = []'
p378
sI136
S'        self._ongoing_row_count = 0'
p379
sI137
S'        self._command_complete = True'
p380
sI138
S'        self._parse_row_desc = self.c.parse(self._statement_name, statement, types)'
p381
sI139
S'        self._lock = threading.RLock()'
p382
sI140
S''
sI141
S'    def close(self):'
p383
sI142
S'        if self._statement_name != "": # don\'t close unnamed statement'
p384
ssg87
S"(self=<gluon.contrib.pg8000.interface.PreparedStatement object>, connection=<gluon.contrib.pg8000.interface.Connection object>, statement='SELECT  sample_annotation.id, sample_annotation....otation WHERE (sample_annotation.id IS NOT NULL);', *types=(), **kwargs={'statement_name': ''})"
p385
sg89
g26
sa(dp386
g66
S'/Users/dex/Copy/web2py/gluon/contrib/pg8000/protocol.py'
p387
sg68
(dp388
S'self'
p389
S'<gluon.contrib.pg8000.protocol.Connection object>'
p390
sS'args'
p391
S"('', 'SELECT  sample_annotation.id, sample_annotation....otation WHERE (sample_annotation.id IS NOT NULL);', ())"
p392
sS'fn'
p393
S'<function parse>'
p394
sS'kwargs'
p395
g21
ssg74
I943
sg75
(dp396
I938
S''
sI939
S'def sync_on_error(fn):'
p397
sI940
S'    def _fn(self, *args, **kwargs):'
p398
sI941
S'        try:'
p399
sI942
S'            self._sock_lock.acquire()'
p400
sI943
S'            return fn(self, *args, **kwargs)'
p401
sI944
S'        except:'
p402
sI945
S'            self._sync()'
p403
sI946
S'            raise'
p404
sI947
S'        finally:'
p405
ssg87
S"(self=<gluon.contrib.pg8000.protocol.Connection object>, *args=('', 'SELECT  sample_annotation.id, sample_annotation....otation WHERE (sample_annotation.id IS NOT NULL);', ()), **kwargs={})"
p406
sg89
g282
sa(dp407
g66
S'/Users/dex/Copy/web2py/gluon/contrib/pg8000/protocol.py'
p408
sg68
(dp409
S'reader.handle_messages'
p410
S'<bound method MessageReader.handle_messages of <gluon.contrib.pg8000.protocol.MessageReader object>>'
p411
sS'reader'
p412
S'<gluon.contrib.pg8000.protocol.MessageReader object>'
p413
ssg74
I1104
sg75
(dp414
I1099
S'        reader.add_message(NoData, lambda msg: (None, param_fc))'
p415
sI1100
S''
sI1101
S'        # Common row description response'
p416
sI1102
S'        reader.add_message(RowDescription, lambda msg: (msg, param_fc))'
p417
sI1103
S''
sI1104
S'        return reader.handle_messages()'
p418
sI1105
S''
sI1106
S'    @sync_on_error'
p419
sI1107
S'    def bind(self, portal, statement, params, parse_data, copy_stream):'
p420
sI1108
S'        self.verifyState("ready")'
p421
ssg87
S"(self=<gluon.contrib.pg8000.protocol.Connection object>, statement='', qs='SELECT  sample_annotation.id, sample_annotation....otation WHERE (sample_annotation.id IS NOT NULL);', param_types=[])"
p422
sg89
S'parse'
p423
sa(dp424
g66
S'/Users/dex/Copy/web2py/gluon/contrib/pg8000/protocol.py'
p425
sg68
(dp426
S'exc'
p427
S'ProgrammingError(\'ERROR\', \'42P01\', \'relation "sample_annotation" does not exist\')'
p428
ssg74
I929
sg75
(dp429
I928
S'                if not self.delay_raising_exception:'
p430
sI929
S'                    raise exc'
p431
sI930
S'            elif isinstance(msg, NoticeResponse):'
p432
sI931
S'                self._conn.handleNoticeResponse(msg)'
p433
sI932
S'            elif isinstance(msg, ParameterStatus):'
p434
sI933
S'                self._conn.handleParameterStatus(msg)'
p435
sI924
S'            if msg_handled:'
p436
sI925
S'                continue'
p437
sI926
S'            elif isinstance(msg, ErrorResponse):'
p438
sI927
S'                exc = msg.createException()'
p439
ssg87
S'(self=<gluon.contrib.pg8000.protocol.MessageReader object>)'
p440
sg89
S'handle_messages'
p441
sasS'pyver'
p442
S'Python 2.7.7: /Users/dex/anaconda/bin/python (prefix: /Users/dex/anaconda)'
p443
sS'session'
p444
g61
(S's\x1a\x00\x00\x00<div><table></table></div>'
tRp445
sS'etype'
p446
S"<class 'gluon.contrib.pg8000.errors.ProgrammingError'>"
p447
sS'date'
p448
S'Fri Jul 11 10:25:39 2014'
p449
sS'response'
p450
g61
(S's:1\x00\x00<div><table><tr><td style="font-weight:bold;vertical-align:top;">body</td><td style="vertical-align:top;">:</td><td><div>&lt;cStringIO.StringO object at 0x10cf49ae8&gt;</div></td></tr><tr><td style="font-weight:bold;vertical-align:top;">cookies</td><td style="vertical-align:top;">:</td><td><div><table><tr><td style="font-weight:bold;vertical-align:top;">session_id_init</td><td style="vertical-align:top;">:</td><td><div>127.0.0.1-69d26404-69fe-4a85-85d0-884bd6272ae8<table><tr><td style="font-weight:bold;vertical-align:top;">comment</td><td style="vertical-align:top;">:</td><td><div></div></td></tr><tr><td style="font-weight:bold;vertical-align:top;">domain</td><td style="vertical-align:top;">:</td><td><div></div></td></tr><tr><td style="font-weight:bold;vertical-align:top;">expires</td><td style="vertical-align:top;">:</td><td><div></div></td></tr><tr><td style="font-weight:bold;vertical-align:top;">httponly</td><td style="vertical-align:top;">:</td><td><div></div></td></tr><tr><td style="font-weight:bold;vertical-align:top;">max-age</td><td style="vertical-align:top;">:</td><td><div></div></td></tr><tr><td style="font-weight:bold;vertical-align:top;">path</td><td style="vertical-align:top;">:</td><td><div>/</div></td></tr><tr><td style="font-weight:bold;vertical-align:top;">secure</td><td style="vertical-align:top;">:</td><td><div></div></td></tr><tr><td style="font-weight:bold;vertical-align:top;">version</td><td style="vertical-align:top;">:</td><td><div></div></td></tr></table></div></td></tr></table></div></td></tr><tr><td style="font-weight:bold;vertical-align:top;">delimiters</td><td style="vertical-align:top;">:</td><td><div><table><tr><td><div>{{</div></td></tr><tr><td><div>}}</div></td></tr></table></div></td></tr><tr><td style="font-weight:bold;vertical-align:top;">files</td><td style="vertical-align:top;">:</td><td><div><table></table></div></td></tr><tr><td style="font-weight:bold;vertical-align:top;">flash</td><td style="vertical-align:top;">:</td><td><div></div></td></tr><tr><td style="font-weight:bold;vertical-align:top;">generic_patterns</td><td style="vertical-align:top;">:</td><td><div><table><tr><td><div>.html</div></td></tr></table></div></td></tr><tr><td style="font-weight:bold;vertical-align:top;">google_analytics_id</td><td style="vertical-align:top;">:</td><td><div>None</div></td></tr><tr><td style="font-weight:bold;vertical-align:top;">headers</td><td style="vertical-align:top;">:</td><td><div><table><tr><td style="font-weight:bold;vertical-align:top;">X-Powered-By</td><td style="vertical-align:top;">:</td><td><div>web2py</div></td></tr></table></div></td></tr><tr><td style="font-weight:bold;vertical-align:top;">logo</td><td style="vertical-align:top;">:</td><td><div><a class="brand" href="http://www.web2py.com/"><b>web<span>2</span>py</b>&trade;&nbsp;</a></div></td></tr><tr><td style="font-weight:bold;vertical-align:top;">menu</td><td style="vertical-align:top;">:</td><td><div><table><tr><td><div><table><tr><td><div>Home</div></td></tr><tr><td><div>False</div></td></tr><tr><td><div>/init/default/index</div></td></tr><tr><td><div><table></table></div></td></tr></table></div></td></tr><tr><td><div><table><tr><td><div><span class="highlighted">web2py</span></div></td></tr><tr><td><div>False</div></td></tr><tr><td><div>http://web2py.com</div></td></tr><tr><td><div><table><tr><td><div><table><tr><td><div>My Sites</div></td></tr><tr><td><div>False</div></td></tr><tr><td><div>/admin/default/site</div></td></tr></table></div></td></tr><tr><td><div><table><tr><td><div>This App</div></td></tr><tr><td><div>False</div></td></tr><tr><td><div>/admin/default/design/init</div></td></tr><tr><td><div>[(&lt;lazyT &#x27;Controller&#x27;&gt;, False, &#x27;/admin/default/edit/init/controllers/default.py&#x27;), (&lt;lazyT &#x27;View&#x27;&gt;, False, &#x27;/admin/default/edit/init/views/default/index.html&#x27;), (&lt;lazyT &#x27;Layout&#x27;&gt;, False, &#x27;/admin/default/edit/init/views/layout.html&#x27;), (&lt;lazyT &#x27;Stylesheet&#x27;&gt;, False, &#x27;/admin/default/edit/init/static/css/web2py.css&#x27;), (&lt;lazyT &#x27;DB Model&#x27;&gt;, False, &#x27;/admin/default/edit/init/models/db.py&#x27;), (&lt;lazyT &#x27;Menu Model&#x27;&gt;, False, &#x27;/admin/default/edit/init/models/menu.py&#x27;), (&lt;lazyT &#x27;Database&#x27;&gt;, False, &#x27;/init/appadmin/index&#x27;), (&lt;lazyT &#x27;Errors&#x27;&gt;, False, &#x27;/admin/default/errors/init&#x27;), (&lt;lazyT &#x27;About&#x27;&gt;, False, &#x27;/admin/default/about/init&#x27;)]</div></td></tr></table></div></td></tr><tr><td><div><table><tr><td><div>web2py.com</div></td></tr><tr><td><div>False</div></td></tr><tr><td><div>http://www.web2py.com</div></td></tr><tr><td><div>[(&lt;lazyT &#x27;Download&#x27;&gt;, False, &#x27;http://www.web2py.com/examples/default/download&#x27;), (&lt;lazyT &#x27;Support&#x27;&gt;, False, &#x27;http://www.web2py.com/examples/default/support&#x27;), (&lt;lazyT &#x27;Demo&#x27;&gt;, False, &#x27;http://web2py.com/demo_admin&#x27;), (&lt;lazyT &#x27;Quick Examples&#x27;&gt;, False, &#x27;http://web2py.com/examples/default/examples&#x27;), (&lt;lazyT &#x27;FAQ&#x27;&gt;, False, &#x27;http://web2py.com/AlterEgo&#x27;), (&lt;lazyT &#x27;Videos&#x27;&gt;, False, &#x27;http://www.web2py.com/examples/default/videos/&#x27;), (&lt;lazyT &#x27;Free Applications&#x27;&gt;, False, &#x27;http://web2py.com/appliances&#x27;), (&lt;lazyT &#x27;Plugins&#x27;&gt;, False, &#x27;http://web2py.com/plugins&#x27;), (&lt;lazyT &#x27;Layouts&#x27;&gt;, False, &#x27;http://web2py.com/layouts&#x27;), (&lt;lazyT &#x27;Recipes&#x27;&gt;, False, &#x27;http://web2pyslices.com/&#x27;), (&lt;lazyT &#x27;Semantic&#x27;&gt;, False, &#x27;http://web2py.com/semantic&#x27;)]</div></td></tr></table></div></td></tr><tr><td><div><table><tr><td><div>Documentation</div></td></tr><tr><td><div>False</div></td></tr><tr><td><div>http://www.web2py.com/book</div></td></tr><tr><td><div>[(&lt;lazyT &#x27;Preface&#x27;&gt;, False, &#x27;http://www.web2py.com/book/default/chapter/00&#x27;), (&lt;lazyT &#x27;Introduction&#x27;&gt;, False, &#x27;http://www.web2py.com/book/default/chapter/01&#x27;), (&lt;lazyT &#x27;Python&#x27;&gt;, False, &#x27;http://www.web2py.com/book/default/chapter/02&#x27;), (&lt;lazyT &#x27;Overview&#x27;&gt;, False, &#x27;http://www.web2py.com/book/default/chapter/03&#x27;), (&lt;lazyT &#x27;The Core&#x27;&gt;, False, &#x27;http://www.web2py.com/book/default/chapter/04&#x27;), (&lt;lazyT &#x27;The Views&#x27;&gt;, False, &#x27;http://www.web2py.com/book/default/chapter/05&#x27;), (&lt;lazyT &#x27;Database&#x27;&gt;, False, &#x27;http://www.web2py.com/book/default/chapter/06&#x27;), (&lt;lazyT &#x27;Forms and Validators&#x27;&gt;, False, &#x27;http://www.web2py.com/book/default/chapter/07&#x27;), (&lt;lazyT &#x27;Email and SMS&#x27;&gt;, False, &#x27;http://www.web2py.com/book/default/chapter/08&#x27;), (&lt;lazyT &#x27;Access Control&#x27;&gt;, False, &#x27;http://www.web2py.com/book/default/chapter/09&#x27;), (&lt;lazyT &#x27;Services&#x27;&gt;, False, &#x27;http://www.web2py.com/book/default/chapter/10&#x27;), (&lt;lazyT &#x27;Ajax Recipes&#x27;&gt;, False, &#x27;http://www.web2py.com/book/default/chapter/11&#x27;), (&lt;lazyT &#x27;Components and Plugins&#x27;&gt;, False, &#x27;http://www.web2py.com/book/default/chapter/12&#x27;), (&lt;lazyT &#x27;Deployment Recipes&#x27;&gt;, False, &#x27;http://www.web2py.com/book/default/chapter/13&#x27;), (&lt;lazyT &#x27;Other Recipes&#x27;&gt;, False, &#x27;http://www.web2py.com/book/default/chapter/14&#x27;), (&lt;lazyT &#x27;Buy this book&#x27;&gt;, False, &#x27;http://stores.lulu.com/web2py&#x27;)]</div></td></tr></table></div></td></tr><tr><td><div><table><tr><td><div>Community</div></td></tr><tr><td><div>False</div></td></tr><tr><td><div>None</div></td></tr><tr><td><div>[(&lt;lazyT &#x27;Groups&#x27;&gt;, False, &#x27;http://www.web2py.com/examples/default/usergroups&#x27;), (&lt;lazyT &#x27;Twitter&#x27;&gt;, False, &#x27;http://twitter.com/web2py&#x27;), (&lt;lazyT &#x27;Live Chat&#x27;&gt;, False, &#x27;http://webchat.freenode.net/?channels=web2py&#x27;)]</div></td></tr></table></div></td></tr><tr><td><div><table><tr><td><div>Plugins</div></td></tr><tr><td><div>False</div></td></tr><tr><td><div>None</div></td></tr><tr><td><div>[(&#x27;plugin_wiki&#x27;, False, &#x27;http://web2py.com/examples/default/download&#x27;), (&lt;lazyT &#x27;Other Plugins&#x27;&gt;, False, &#x27;http://web2py.com/plugins&#x27;), (&lt;lazyT &#x27;Layout Plugins&#x27;&gt;, False, &#x27;http://web2py.com/layouts&#x27;)]</div></td></tr></table></div></td></tr></table></div></td></tr></table></div></td></tr></table></div></td></tr><tr><td style="font-weight:bold;vertical-align:top;">meta</td><td style="vertical-align:top;">:</td><td><div><table><tr><td style="font-weight:bold;vertical-align:top;">author</td><td style="vertical-align:top;">:</td><td><div>Your Name &lt;you@example.com&gt;</div></td></tr><tr><td style="font-weight:bold;vertical-align:top;">generator</td><td style="vertical-align:top;">:</td><td><div>Web2py Web Framework</div></td></tr><tr><td style="font-weight:bold;vertical-align:top;">keywords</td><td style="vertical-align:top;">:</td><td><div>web2py, python, framework</div></td></tr></table></div></td></tr><tr><td style="font-weight:bold;vertical-align:top;">models_to_run</td><td style="vertical-align:top;">:</td><td><div><table><tr><td><div>^\\w+\\.py$</div></td></tr><tr><td><div>^default/\\w+\\.py$</div></td></tr><tr><td><div>^default/index/\\w+\\.py$</div></td></tr></table></div></td></tr><tr><td style="font-weight:bold;vertical-align:top;">postprocessing</td><td style="vertical-align:top;">:</td><td><div><table></table></div></td></tr><tr><td style="font-weight:bold;vertical-align:top;">session_client</td><td style="vertical-align:top;">:</td><td><div>127.0.0.1</div></td></tr><tr><td style="font-weight:bold;vertical-align:top;">session_cookie_compression_level</td><td style="vertical-align:top;">:</td><td><div>None</div></td></tr><tr><td style="font-weight:bold;vertical-align:top;">session_cookie_expires</td><td style="vertical-align:top;">:</td><td><div>None</div></td></tr><tr><td style="font-weight:bold;vertical-align:top;">session_cookie_key</td><td style="vertical-align:top;">:</td><td><div>None</div></td></tr><tr><td style="font-weight:bold;vertical-align:top;">session_data_name</td><td style="vertical-align:top;">:</td><td><div>session_data_init</div></td></tr><tr><td style="font-weight:bold;vertical-align:top;">session_file</td><td style="vertical-align:top;">:</td><td><div>&lt;open file &#x27;/Users/dex/Copy/web2py/applications/init/sessions/127.0.0.1-69d26404-69fe-4a85-85d0-884bd6272ae8&#x27;, mode &#x27;rb+&#x27; at 0x10cd9aed0&gt;</div></td></tr><tr><td style="font-weight:bold;vertical-align:top;">session_filename</td><td style="vertical-align:top;">:</td><td><div>/Users/dex/Copy/web2py/applications/init/sessions/127.0.0.1-69d26404-69fe-4a85-85d0-884bd6272ae8</div></td></tr><tr><td style="font-weight:bold;vertical-align:top;">session_hash</td><td style="vertical-align:top;">:</td><td><div>b2b2186ef372442d99b1f7330f7e11a5</div></td></tr><tr><td style="font-weight:bold;vertical-align:top;">session_id</td><td style="vertical-align:top;">:</td><td><div>127.0.0.1-69d26404-69fe-4a85-85d0-884bd6272ae8</div></td></tr><tr><td style="font-weight:bold;vertical-align:top;">session_id_name</td><td style="vertical-align:top;">:</td><td><div>session_id_init</div></td></tr><tr><td style="font-weight:bold;vertical-align:top;">session_locked</td><td style="vertical-align:top;">:</td><td><div>True</div></td></tr><tr><td style="font-weight:bold;vertical-align:top;">session_masterapp</td><td style="vertical-align:top;">:</td><td><div>init</div></td></tr><tr><td style="font-weight:bold;vertical-align:top;">session_new</td><td style="vertical-align:top;">:</td><td><div>False</div></td></tr><tr><td style="font-weight:bold;vertical-align:top;">session_storage_type</td><td style="vertical-align:top;">:</td><td><div>file</div></td></tr><tr><td style="font-weight:bold;vertical-align:top;">status</td><td style="vertical-align:top;">:</td><td><div>200</div></td></tr><tr><td style="font-weight:bold;vertical-align:top;">subtitle</td><td style="vertical-align:top;">:</td><td><div></div></td></tr><tr><td style="font-weight:bold;vertical-align:top;">title</td><td style="vertical-align:top;">:</td><td><div>Init</div></td></tr><tr><td style="font-weight:bold;vertical-align:top;">view</td><td style="vertical-align:top;">:</td><td><div>default/index.html</div></td></tr></table></div>'
tRp451
sS'locals'
p452
(dp453
S'exc'
p454
S'ProgrammingError(\'ERROR\', \'42P01\', \'relation "sample_annotation" does not exist\')'
p455
sS'msg_class'
p456
S"<class 'gluon.contrib.pg8000.protocol.RowDescription'>"
p457
sS'self'
p458
S'<gluon.contrib.pg8000.protocol.MessageReader object>'
p459
sg46
S'()'
p460
sS'handler'
p461
S'<function <lambda>>'
p462
sS'kwargs'
p463
g21
sS'msg'
p464
S'<ErrorResponse ERROR 42P01 \'relation "sample_annotation" does not exist\'>'
p465
sS'msg_handled'
p466
S'False'
p467
sssS'traceback'
p468
S'Traceback (most recent call last):\n  File "/Users/dex/Copy/web2py/gluon/restricted.py", line 220, in restricted\n    exec ccode in environment\n  File "/Users/dex/Copy/web2py/applications/init/controllers/default.py", line 80, in <module>\n  File "/Users/dex/Copy/web2py/gluon/globals.py", line 385, in <lambda>\n    self._caller = lambda f: f()\n  File "/Users/dex/Copy/web2py/applications/init/controllers/default.py", line 23, in index\n    grid = SQLFORM.grid(db(Sample_Annotation).select())\n  File "/Users/dex/Copy/web2py/gluon/dal.py", line 10525, in select\n    return adapter.select(self.query,fields,attributes)\n  File "/Users/dex/Copy/web2py/gluon/dal.py", line 1882, in select\n    return self._select_aux(sql,fields,attributes)\n  File "/Users/dex/Copy/web2py/gluon/dal.py", line 1847, in _select_aux\n    self.execute(sql)\n  File "/Users/dex/Copy/web2py/gluon/dal.py", line 1969, in execute\n    return self.log_execute(*a, **b)\n  File "/Users/dex/Copy/web2py/gluon/dal.py", line 1963, in log_execute\n    ret = self.cursor.execute(command, *a[1:], **b)\n  File "/Users/dex/Copy/web2py/gluon/contrib/pg8000/dbapi.py", line 246, in _fn\n    return fn(self, *args, **kwargs)\n  File "/Users/dex/Copy/web2py/gluon/contrib/pg8000/dbapi.py", line 317, in execute\n    self._execute(operation, args)\n  File "/Users/dex/Copy/web2py/gluon/contrib/pg8000/dbapi.py", line 322, in _execute\n    self.cursor.execute(new_query, *new_args)\n  File "/Users/dex/Copy/web2py/gluon/contrib/pg8000/interface.py", line 398, in execute\n    self._stmt = PreparedStatement(self.connection, query, statement_name="", *[{"type": type(x), "value": x} for x in args])\n  File "/Users/dex/Copy/web2py/gluon/contrib/pg8000/interface.py", line 138, in __init__\n    self._parse_row_desc = self.c.parse(self._statement_name, statement, types)\n  File "/Users/dex/Copy/web2py/gluon/contrib/pg8000/protocol.py", line 943, in _fn\n    return fn(self, *args, **kwargs)\n  File "/Users/dex/Copy/web2py/gluon/contrib/pg8000/protocol.py", line 1104, in parse\n    return reader.handle_messages()\n  File "/Users/dex/Copy/web2py/gluon/contrib/pg8000/protocol.py", line 929, in handle_messages\n    raise exc\nProgrammingError: (\'ERROR\', \'42P01\', \'relation "sample_annotation" does not exist\')\n'
p469
s.